
rsa_rv.elf:     file format elf32-littleriscv


Disassembly of section .text:

00010074 <main>:
   10074:	b7010113          	addi	sp,sp,-1168
   10078:	48912223          	sw	s1,1156(sp)
   1007c:	66c5                	lui	a3,0x11
   1007e:	0b01a483          	lw	s1,176(gp) # 11e58 <d0inv>
   10082:	5a868693          	addi	a3,a3,1448 # 115a8 <n>
   10086:	49212023          	sw	s2,1152(sp)
   1008a:	30068913          	addi	s2,a3,768
   1008e:	864a                	mv	a2,s2
   10090:	18068693          	addi	a3,a3,384
   10094:	030c                	addi	a1,sp,384
   10096:	8526                	mv	a0,s1
   10098:	48812423          	sw	s0,1160(sp)
   1009c:	48112623          	sw	ra,1164(sp)
   100a0:	4421                	li	s0,8
   100a2:	20f9                	jal	10170 <mont_mul.constprop.0>
   100a4:	0314                	addi	a3,sp,384
   100a6:	8636                	mv	a2,a3
   100a8:	060c                	addi	a1,sp,768
   100aa:	8526                	mv	a0,s1
   100ac:	20d1                	jal	10170 <mont_mul.constprop.0>
   100ae:	0614                	addi	a3,sp,768
   100b0:	147d                	addi	s0,s0,-1
   100b2:	8636                	mv	a2,a3
   100b4:	030c                	addi	a1,sp,384
   100b6:	8526                	mv	a0,s1
   100b8:	2865                	jal	10170 <mont_mul.constprop.0>
   100ba:	f46d                	bnez	s0,100a4 <main+0x30>
   100bc:	8526                	mv	a0,s1
   100be:	86ca                	mv	a3,s2
   100c0:	0310                	addi	a2,sp,384
   100c2:	858a                	mv	a1,sp
   100c4:	2075                	jal	10170 <mont_mul.constprop.0>
   100c6:	48c12083          	lw	ra,1164(sp)
   100ca:	48812403          	lw	s0,1160(sp)
   100ce:	48412483          	lw	s1,1156(sp)
   100d2:	48012903          	lw	s2,1152(sp)
   100d6:	4501                	li	a0,0
   100d8:	49010113          	addi	sp,sp,1168
   100dc:	8082                	ret

000100de <register_fini>:
   100de:	00000793          	li	a5,0
   100e2:	c789                	beqz	a5,100ec <register_fini+0xe>
   100e4:	6541                	lui	a0,0x10
   100e6:	4cc50513          	addi	a0,a0,1228 # 104cc <__libc_fini_array>
   100ea:	aee1                	j	104c2 <atexit>
   100ec:	8082                	ret

000100ee <_start>:
   100ee:	00002197          	auipc	gp,0x2
   100f2:	cba18193          	addi	gp,gp,-838 # 11da8 <__global_pointer$>
   100f6:	0b818513          	addi	a0,gp,184 # 11e60 <_edata>
   100fa:	0d418613          	addi	a2,gp,212 # 11e7c <__BSS_END__>
   100fe:	8e09                	sub	a2,a2,a0
   10100:	4581                	li	a1,0
   10102:	2ca9                	jal	1035c <memset>
   10104:	00000517          	auipc	a0,0x0
   10108:	3be50513          	addi	a0,a0,958 # 104c2 <atexit>
   1010c:	c511                	beqz	a0,10118 <_start+0x2a>
   1010e:	00000517          	auipc	a0,0x0
   10112:	3be50513          	addi	a0,a0,958 # 104cc <__libc_fini_array>
   10116:	2675                	jal	104c2 <atexit>
   10118:	2ae9                	jal	102f2 <__libc_init_array>
   1011a:	4502                	lw	a0,0(sp)
   1011c:	004c                	addi	a1,sp,4
   1011e:	4601                	li	a2,0
   10120:	3f91                	jal	10074 <main>
   10122:	aa5d                	j	102d8 <exit>

00010124 <__do_global_dtors_aux>:
   10124:	0b81c703          	lbu	a4,184(gp) # 11e60 <_edata>
   10128:	e715                	bnez	a4,10154 <__do_global_dtors_aux+0x30>
   1012a:	1141                	addi	sp,sp,-16
   1012c:	c422                	sw	s0,8(sp)
   1012e:	843e                	mv	s0,a5
   10130:	c606                	sw	ra,12(sp)
   10132:	00000793          	li	a5,0
   10136:	cb81                	beqz	a5,10146 <__do_global_dtors_aux+0x22>
   10138:	6545                	lui	a0,0x11
   1013a:	59450513          	addi	a0,a0,1428 # 11594 <__FRAME_END__>
   1013e:	00000097          	auipc	ra,0x0
   10142:	000000e7          	jalr	zero # 0 <main-0x10074>
   10146:	4785                	li	a5,1
   10148:	40b2                	lw	ra,12(sp)
   1014a:	0af18c23          	sb	a5,184(gp) # 11e60 <_edata>
   1014e:	4422                	lw	s0,8(sp)
   10150:	0141                	addi	sp,sp,16
   10152:	8082                	ret
   10154:	8082                	ret

00010156 <frame_dummy>:
   10156:	00000793          	li	a5,0
   1015a:	cb91                	beqz	a5,1016e <frame_dummy+0x18>
   1015c:	6545                	lui	a0,0x11
   1015e:	0bc18593          	addi	a1,gp,188 # 11e64 <object.0>
   10162:	59450513          	addi	a0,a0,1428 # 11594 <__FRAME_END__>
   10166:	00000317          	auipc	t1,0x0
   1016a:	00000067          	jr	zero # 0 <main-0x10074>
   1016e:	8082                	ret

00010170 <mont_mul.constprop.0>:
   10170:	7179                	addi	sp,sp,-48
   10172:	83ae                	mv	t2,a1
   10174:	d422                	sw	s0,40(sp)
   10176:	cc52                	sw	s4,24(sp)
   10178:	8432                	mv	s0,a2
   1017a:	8a2a                	mv	s4,a0
   1017c:	18000613          	li	a2,384
   10180:	851e                	mv	a0,t2
   10182:	4581                	li	a1,0
   10184:	d226                	sw	s1,36(sp)
   10186:	d04a                	sw	s2,32(sp)
   10188:	ce4e                	sw	s3,28(sp)
   1018a:	ca56                	sw	s5,20(sp)
   1018c:	c85a                	sw	s6,16(sp)
   1018e:	c65e                	sw	s7,12(sp)
   10190:	84b6                	mv	s1,a3
   10192:	d606                	sw	ra,44(sp)
   10194:	c462                	sw	s8,8(sp)
   10196:	c266                	sw	s9,4(sp)
   10198:	22d1                	jal	1035c <memset>
   1019a:	6945                	lui	s2,0x11
   1019c:	69c5                	lui	s3,0x11
   1019e:	82a2                	mv	t0,s0
   101a0:	18040b93          	addi	s7,s0,384
   101a4:	83aa                	mv	t2,a0
   101a6:	5a890413          	addi	s0,s2,1448 # 115a8 <n>
   101aa:	00448b13          	addi	s6,s1,4
   101ae:	5ac98993          	addi	s3,s3,1452 # 115ac <n+0x4>
   101b2:	98018f93          	addi	t6,gp,-1664 # 11728 <rr>
   101b6:	5a890a93          	addi	s5,s2,1448
   101ba:	0002ae03          	lw	t3,0(t0)
   101be:	4090                	lw	a2,0(s1)
   101c0:	0003a783          	lw	a5,0(t2)
   101c4:	4018                	lw	a4,0(s0)
   101c6:	02ce06b3          	mul	a3,t3,a2
   101ca:	88da                	mv	a7,s6
   101cc:	8f1e                	mv	t5,t2
   101ce:	884e                	mv	a6,s3
   101d0:	8456                	mv	s0,s5
   101d2:	5a890e93          	addi	t4,s2,1448
   101d6:	851e                	mv	a0,t2
   101d8:	97b6                	add	a5,a5,a3
   101da:	02fa0333          	mul	t1,s4,a5
   101de:	00d7b6b3          	sltu	a3,a5,a3
   101e2:	02e305b3          	mul	a1,t1,a4
   101e6:	02ce3633          	mulhu	a2,t3,a2
   101ea:	97ae                	add	a5,a5,a1
   101ec:	00b7b7b3          	sltu	a5,a5,a1
   101f0:	02e33733          	mulhu	a4,t1,a4
   101f4:	96b2                	add	a3,a3,a2
   101f6:	97ba                	add	a5,a5,a4
   101f8:	0008ac03          	lw	s8,0(a7)
   101fc:	00082583          	lw	a1,0(a6)
   10200:	4150                	lw	a2,4(a0)
   10202:	038e0733          	mul	a4,t3,s8
   10206:	0511                	addi	a0,a0,4
   10208:	9636                	add	a2,a2,a3
   1020a:	00d636b3          	sltu	a3,a2,a3
   1020e:	0811                	addi	a6,a6,4
   10210:	0891                	addi	a7,a7,4
   10212:	02b30cb3          	mul	s9,t1,a1
   10216:	9732                	add	a4,a4,a2
   10218:	00c73633          	sltu	a2,a4,a2
   1021c:	038e3c33          	mulhu	s8,t3,s8
   10220:	97e6                	add	a5,a5,s9
   10222:	973e                	add	a4,a4,a5
   10224:	0197bcb3          	sltu	s9,a5,s9
   10228:	fee52e23          	sw	a4,-4(a0)
   1022c:	00f737b3          	sltu	a5,a4,a5
   10230:	02b335b3          	mulhu	a1,t1,a1
   10234:	96e2                	add	a3,a3,s8
   10236:	96b2                	add	a3,a3,a2
   10238:	95e6                	add	a1,a1,s9
   1023a:	97ae                	add	a5,a5,a1
   1023c:	fb0f9ee3          	bne	t6,a6,101f8 <mont_mul.constprop.0+0x88>
   10240:	97b6                	add	a5,a5,a3
   10242:	16f3ae23          	sw	a5,380(t2)
   10246:	02d7e263          	bltu	a5,a3,1026a <mont_mul.constprop.0+0xfa>
   1024a:	0291                	addi	t0,t0,4
   1024c:	f65b97e3          	bne	s7,t0,101ba <mont_mul.constprop.0+0x4a>
   10250:	50b2                	lw	ra,44(sp)
   10252:	5422                	lw	s0,40(sp)
   10254:	5492                	lw	s1,36(sp)
   10256:	5902                	lw	s2,32(sp)
   10258:	49f2                	lw	s3,28(sp)
   1025a:	4a62                	lw	s4,24(sp)
   1025c:	4ad2                	lw	s5,20(sp)
   1025e:	4b42                	lw	s6,16(sp)
   10260:	4bb2                	lw	s7,12(sp)
   10262:	4c22                	lw	s8,8(sp)
   10264:	4c92                	lw	s9,4(sp)
   10266:	6145                	addi	sp,sp,48
   10268:	8082                	ret
   1026a:	4781                	li	a5,0
   1026c:	4601                	li	a2,0
   1026e:	000f2703          	lw	a4,0(t5)
   10272:	000ea683          	lw	a3,0(t4)
   10276:	0e91                	addi	t4,t4,4
   10278:	97ba                	add	a5,a5,a4
   1027a:	40d786b3          	sub	a3,a5,a3
   1027e:	00e7b733          	sltu	a4,a5,a4
   10282:	9732                	add	a4,a4,a2
   10284:	00d7b7b3          	sltu	a5,a5,a3
   10288:	00df2023          	sw	a3,0(t5)
   1028c:	40f707b3          	sub	a5,a4,a5
   10290:	41f7d613          	srai	a2,a5,0x1f
   10294:	0f11                	addi	t5,t5,4
   10296:	fdfe9ce3          	bne	t4,t6,1026e <mont_mul.constprop.0+0xfe>
   1029a:	bf45                	j	1024a <mont_mul.constprop.0+0xda>

0001029c <mul32>:
   1029c:	87ae                	mv	a5,a1
   1029e:	02b535b3          	mulhu	a1,a0,a1
   102a2:	02f50533          	mul	a0,a0,a5
   102a6:	8082                	ret

000102a8 <mula32>:
   102a8:	02b507b3          	mul	a5,a0,a1
   102ac:	02b535b3          	mulhu	a1,a0,a1
   102b0:	00c78533          	add	a0,a5,a2
   102b4:	00f537b3          	sltu	a5,a0,a5
   102b8:	95be                	add	a1,a1,a5
   102ba:	8082                	ret

000102bc <mulaa32>:
   102bc:	02b50733          	mul	a4,a0,a1
   102c0:	96b2                	add	a3,a3,a2
   102c2:	00c6b633          	sltu	a2,a3,a2
   102c6:	02b537b3          	mulhu	a5,a0,a1
   102ca:	00d70533          	add	a0,a4,a3
   102ce:	00e535b3          	sltu	a1,a0,a4
   102d2:	97b2                	add	a5,a5,a2
   102d4:	95be                	add	a1,a1,a5
   102d6:	8082                	ret

000102d8 <exit>:
   102d8:	1141                	addi	sp,sp,-16
   102da:	4581                	li	a1,0
   102dc:	c422                	sw	s0,8(sp)
   102de:	c606                	sw	ra,12(sp)
   102e0:	842a                	mv	s0,a0
   102e2:	220d                	jal	10404 <__call_exitprocs>
   102e4:	0a81a503          	lw	a0,168(gp) # 11e50 <_global_impure_ptr>
   102e8:	5d5c                	lw	a5,60(a0)
   102ea:	c391                	beqz	a5,102ee <exit+0x16>
   102ec:	9782                	jalr	a5
   102ee:	8522                	mv	a0,s0
   102f0:	2cb5                	jal	1056c <_exit>

000102f2 <__libc_init_array>:
   102f2:	1141                	addi	sp,sp,-16
   102f4:	c422                	sw	s0,8(sp)
   102f6:	c04a                	sw	s2,0(sp)
   102f8:	6445                	lui	s0,0x11
   102fa:	6945                	lui	s2,0x11
   102fc:	59840793          	addi	a5,s0,1432 # 11598 <__init_array_start>
   10300:	59890913          	addi	s2,s2,1432 # 11598 <__init_array_start>
   10304:	40f90933          	sub	s2,s2,a5
   10308:	c606                	sw	ra,12(sp)
   1030a:	c226                	sw	s1,4(sp)
   1030c:	40295913          	srai	s2,s2,0x2
   10310:	00090b63          	beqz	s2,10326 <__libc_init_array+0x34>
   10314:	59840413          	addi	s0,s0,1432
   10318:	4481                	li	s1,0
   1031a:	401c                	lw	a5,0(s0)
   1031c:	0485                	addi	s1,s1,1
   1031e:	0411                	addi	s0,s0,4
   10320:	9782                	jalr	a5
   10322:	fe991ce3          	bne	s2,s1,1031a <__libc_init_array+0x28>
   10326:	6445                	lui	s0,0x11
   10328:	6945                	lui	s2,0x11
   1032a:	59840793          	addi	a5,s0,1432 # 11598 <__init_array_start>
   1032e:	5a090913          	addi	s2,s2,1440 # 115a0 <__init_array_end>
   10332:	40f90933          	sub	s2,s2,a5
   10336:	40295913          	srai	s2,s2,0x2
   1033a:	00090b63          	beqz	s2,10350 <__libc_init_array+0x5e>
   1033e:	59840413          	addi	s0,s0,1432
   10342:	4481                	li	s1,0
   10344:	401c                	lw	a5,0(s0)
   10346:	0485                	addi	s1,s1,1
   10348:	0411                	addi	s0,s0,4
   1034a:	9782                	jalr	a5
   1034c:	fe991ce3          	bne	s2,s1,10344 <__libc_init_array+0x52>
   10350:	40b2                	lw	ra,12(sp)
   10352:	4422                	lw	s0,8(sp)
   10354:	4492                	lw	s1,4(sp)
   10356:	4902                	lw	s2,0(sp)
   10358:	0141                	addi	sp,sp,16
   1035a:	8082                	ret

0001035c <memset>:
   1035c:	433d                	li	t1,15
   1035e:	872a                	mv	a4,a0
   10360:	02c37363          	bgeu	t1,a2,10386 <memset+0x2a>
   10364:	00f77793          	andi	a5,a4,15
   10368:	efbd                	bnez	a5,103e6 <memset+0x8a>
   1036a:	e5ad                	bnez	a1,103d4 <memset+0x78>
   1036c:	ff067693          	andi	a3,a2,-16
   10370:	8a3d                	andi	a2,a2,15
   10372:	96ba                	add	a3,a3,a4
   10374:	c30c                	sw	a1,0(a4)
   10376:	c34c                	sw	a1,4(a4)
   10378:	c70c                	sw	a1,8(a4)
   1037a:	c74c                	sw	a1,12(a4)
   1037c:	0741                	addi	a4,a4,16
   1037e:	fed76be3          	bltu	a4,a3,10374 <memset+0x18>
   10382:	e211                	bnez	a2,10386 <memset+0x2a>
   10384:	8082                	ret
   10386:	40c306b3          	sub	a3,t1,a2
   1038a:	068a                	slli	a3,a3,0x2
   1038c:	00000297          	auipc	t0,0x0
   10390:	9696                	add	a3,a3,t0
   10392:	00a68067          	jr	10(a3)
   10396:	00b70723          	sb	a1,14(a4)
   1039a:	00b706a3          	sb	a1,13(a4)
   1039e:	00b70623          	sb	a1,12(a4)
   103a2:	00b705a3          	sb	a1,11(a4)
   103a6:	00b70523          	sb	a1,10(a4)
   103aa:	00b704a3          	sb	a1,9(a4)
   103ae:	00b70423          	sb	a1,8(a4)
   103b2:	00b703a3          	sb	a1,7(a4)
   103b6:	00b70323          	sb	a1,6(a4)
   103ba:	00b702a3          	sb	a1,5(a4)
   103be:	00b70223          	sb	a1,4(a4)
   103c2:	00b701a3          	sb	a1,3(a4)
   103c6:	00b70123          	sb	a1,2(a4)
   103ca:	00b700a3          	sb	a1,1(a4)
   103ce:	00b70023          	sb	a1,0(a4)
   103d2:	8082                	ret
   103d4:	0ff5f593          	andi	a1,a1,255
   103d8:	00859693          	slli	a3,a1,0x8
   103dc:	8dd5                	or	a1,a1,a3
   103de:	01059693          	slli	a3,a1,0x10
   103e2:	8dd5                	or	a1,a1,a3
   103e4:	b761                	j	1036c <memset+0x10>
   103e6:	00279693          	slli	a3,a5,0x2
   103ea:	00000297          	auipc	t0,0x0
   103ee:	9696                	add	a3,a3,t0
   103f0:	8286                	mv	t0,ra
   103f2:	fa8680e7          	jalr	-88(a3)
   103f6:	8096                	mv	ra,t0
   103f8:	17c1                	addi	a5,a5,-16
   103fa:	8f1d                	sub	a4,a4,a5
   103fc:	963e                	add	a2,a2,a5
   103fe:	f8c374e3          	bgeu	t1,a2,10386 <memset+0x2a>
   10402:	b7a5                	j	1036a <memset+0xe>

00010404 <__call_exitprocs>:
   10404:	7179                	addi	sp,sp,-48
   10406:	cc52                	sw	s4,24(sp)
   10408:	0a81aa03          	lw	s4,168(gp) # 11e50 <_global_impure_ptr>
   1040c:	d04a                	sw	s2,32(sp)
   1040e:	d606                	sw	ra,44(sp)
   10410:	148a2903          	lw	s2,328(s4)
   10414:	d422                	sw	s0,40(sp)
   10416:	d226                	sw	s1,36(sp)
   10418:	ce4e                	sw	s3,28(sp)
   1041a:	ca56                	sw	s5,20(sp)
   1041c:	c85a                	sw	s6,16(sp)
   1041e:	c65e                	sw	s7,12(sp)
   10420:	c462                	sw	s8,8(sp)
   10422:	02090863          	beqz	s2,10452 <__call_exitprocs+0x4e>
   10426:	8b2a                	mv	s6,a0
   10428:	8bae                	mv	s7,a1
   1042a:	4a85                	li	s5,1
   1042c:	59fd                	li	s3,-1
   1042e:	00492483          	lw	s1,4(s2)
   10432:	fff48413          	addi	s0,s1,-1
   10436:	00044e63          	bltz	s0,10452 <__call_exitprocs+0x4e>
   1043a:	048a                	slli	s1,s1,0x2
   1043c:	94ca                	add	s1,s1,s2
   1043e:	020b8663          	beqz	s7,1046a <__call_exitprocs+0x66>
   10442:	1044a783          	lw	a5,260(s1)
   10446:	03778263          	beq	a5,s7,1046a <__call_exitprocs+0x66>
   1044a:	147d                	addi	s0,s0,-1
   1044c:	14f1                	addi	s1,s1,-4
   1044e:	ff3418e3          	bne	s0,s3,1043e <__call_exitprocs+0x3a>
   10452:	50b2                	lw	ra,44(sp)
   10454:	5422                	lw	s0,40(sp)
   10456:	5492                	lw	s1,36(sp)
   10458:	5902                	lw	s2,32(sp)
   1045a:	49f2                	lw	s3,28(sp)
   1045c:	4a62                	lw	s4,24(sp)
   1045e:	4ad2                	lw	s5,20(sp)
   10460:	4b42                	lw	s6,16(sp)
   10462:	4bb2                	lw	s7,12(sp)
   10464:	4c22                	lw	s8,8(sp)
   10466:	6145                	addi	sp,sp,48
   10468:	8082                	ret
   1046a:	00492783          	lw	a5,4(s2)
   1046e:	40d4                	lw	a3,4(s1)
   10470:	17fd                	addi	a5,a5,-1
   10472:	04878263          	beq	a5,s0,104b6 <__call_exitprocs+0xb2>
   10476:	0004a223          	sw	zero,4(s1)
   1047a:	dae1                	beqz	a3,1044a <__call_exitprocs+0x46>
   1047c:	18892783          	lw	a5,392(s2)
   10480:	008a9733          	sll	a4,s5,s0
   10484:	00492c03          	lw	s8,4(s2)
   10488:	8ff9                	and	a5,a5,a4
   1048a:	ef89                	bnez	a5,104a4 <__call_exitprocs+0xa0>
   1048c:	9682                	jalr	a3
   1048e:	00492703          	lw	a4,4(s2)
   10492:	148a2783          	lw	a5,328(s4)
   10496:	01871463          	bne	a4,s8,1049e <__call_exitprocs+0x9a>
   1049a:	fb2788e3          	beq	a5,s2,1044a <__call_exitprocs+0x46>
   1049e:	dbd5                	beqz	a5,10452 <__call_exitprocs+0x4e>
   104a0:	893e                	mv	s2,a5
   104a2:	b771                	j	1042e <__call_exitprocs+0x2a>
   104a4:	18c92783          	lw	a5,396(s2)
   104a8:	0844a583          	lw	a1,132(s1)
   104ac:	8f7d                	and	a4,a4,a5
   104ae:	e719                	bnez	a4,104bc <__call_exitprocs+0xb8>
   104b0:	855a                	mv	a0,s6
   104b2:	9682                	jalr	a3
   104b4:	bfe9                	j	1048e <__call_exitprocs+0x8a>
   104b6:	00892223          	sw	s0,4(s2)
   104ba:	b7c1                	j	1047a <__call_exitprocs+0x76>
   104bc:	852e                	mv	a0,a1
   104be:	9682                	jalr	a3
   104c0:	b7f9                	j	1048e <__call_exitprocs+0x8a>

000104c2 <atexit>:
   104c2:	85aa                	mv	a1,a0
   104c4:	4681                	li	a3,0
   104c6:	4601                	li	a2,0
   104c8:	4501                	li	a0,0
   104ca:	a81d                	j	10500 <__register_exitproc>

000104cc <__libc_fini_array>:
   104cc:	1141                	addi	sp,sp,-16
   104ce:	c422                	sw	s0,8(sp)
   104d0:	67c5                	lui	a5,0x11
   104d2:	6445                	lui	s0,0x11
   104d4:	5a040413          	addi	s0,s0,1440 # 115a0 <__init_array_end>
   104d8:	5a478793          	addi	a5,a5,1444 # 115a4 <__fini_array_end>
   104dc:	8f81                	sub	a5,a5,s0
   104de:	c226                	sw	s1,4(sp)
   104e0:	c606                	sw	ra,12(sp)
   104e2:	4027d493          	srai	s1,a5,0x2
   104e6:	c881                	beqz	s1,104f6 <__libc_fini_array+0x2a>
   104e8:	17f1                	addi	a5,a5,-4
   104ea:	943e                	add	s0,s0,a5
   104ec:	401c                	lw	a5,0(s0)
   104ee:	14fd                	addi	s1,s1,-1
   104f0:	1471                	addi	s0,s0,-4
   104f2:	9782                	jalr	a5
   104f4:	fce5                	bnez	s1,104ec <__libc_fini_array+0x20>
   104f6:	40b2                	lw	ra,12(sp)
   104f8:	4422                	lw	s0,8(sp)
   104fa:	4492                	lw	s1,4(sp)
   104fc:	0141                	addi	sp,sp,16
   104fe:	8082                	ret

00010500 <__register_exitproc>:
   10500:	0a81a703          	lw	a4,168(gp) # 11e50 <_global_impure_ptr>
   10504:	14872783          	lw	a5,328(a4)
   10508:	c3a1                	beqz	a5,10548 <__register_exitproc+0x48>
   1050a:	43d8                	lw	a4,4(a5)
   1050c:	487d                	li	a6,31
   1050e:	04e84d63          	blt	a6,a4,10568 <__register_exitproc+0x68>
   10512:	00271813          	slli	a6,a4,0x2
   10516:	c11d                	beqz	a0,1053c <__register_exitproc+0x3c>
   10518:	01078333          	add	t1,a5,a6
   1051c:	08c32423          	sw	a2,136(t1) # 101ee <mont_mul.constprop.0+0x7e>
   10520:	1887a883          	lw	a7,392(a5)
   10524:	4605                	li	a2,1
   10526:	00e61633          	sll	a2,a2,a4
   1052a:	00c8e8b3          	or	a7,a7,a2
   1052e:	1917a423          	sw	a7,392(a5)
   10532:	10d32423          	sw	a3,264(t1)
   10536:	4689                	li	a3,2
   10538:	00d50d63          	beq	a0,a3,10552 <__register_exitproc+0x52>
   1053c:	0705                	addi	a4,a4,1
   1053e:	c3d8                	sw	a4,4(a5)
   10540:	97c2                	add	a5,a5,a6
   10542:	c78c                	sw	a1,8(a5)
   10544:	4501                	li	a0,0
   10546:	8082                	ret
   10548:	14c70793          	addi	a5,a4,332
   1054c:	14f72423          	sw	a5,328(a4)
   10550:	bf6d                	j	1050a <__register_exitproc+0xa>
   10552:	18c7a683          	lw	a3,396(a5)
   10556:	0705                	addi	a4,a4,1
   10558:	c3d8                	sw	a4,4(a5)
   1055a:	8e55                	or	a2,a2,a3
   1055c:	18c7a623          	sw	a2,396(a5)
   10560:	97c2                	add	a5,a5,a6
   10562:	c78c                	sw	a1,8(a5)
   10564:	4501                	li	a0,0
   10566:	8082                	ret
   10568:	557d                	li	a0,-1
   1056a:	8082                	ret

0001056c <_exit>:
   1056c:	05d00893          	li	a7,93
   10570:	00000073          	ecall
   10574:	00054363          	bltz	a0,1057a <_exit+0xe>
   10578:	a001                	j	10578 <_exit+0xc>
   1057a:	1141                	addi	sp,sp,-16
   1057c:	c422                	sw	s0,8(sp)
   1057e:	842a                	mv	s0,a0
   10580:	c606                	sw	ra,12(sp)
   10582:	40800433          	neg	s0,s0
   10586:	2019                	jal	1058c <__errno>
   10588:	c100                	sw	s0,0(a0)
   1058a:	a001                	j	1058a <_exit+0x1e>

0001058c <__errno>:
   1058c:	0b41a503          	lw	a0,180(gp) # 11e5c <_impure_ptr>
   10590:	8082                	ret
