falcon_verify.elf:     file format elf32-littleriscv


Disassembly of section .text:

00010074 <main>:
   10074:	ffffd2b7          	lui	t0,0xffffd
   10078:	ffffd537          	lui	a0,0xffffd
   1007c:	000047b7          	lui	a5,0x4
   10080:	81010113          	addi	sp,sp,-2032
   10084:	fe028293          	addi	t0,t0,-32 # ffffcfe0 <__BSS_END__+0xfffe53dc>
   10088:	80050513          	addi	a0,a0,-2048 # ffffc800 <__BSS_END__+0xfffe4bfc>
   1008c:	80078793          	addi	a5,a5,-2048 # 3800 <main-0xc874>
   10090:	00a787b3          	add	a5,a5,a0
   10094:	7e112623          	sw	ra,2028(sp)
   10098:	00510133          	add	sp,sp,t0
   1009c:	00278533          	add	a0,a5,sp
   100a0:	628000ef          	jal	ra,106c8 <PQCLEAN_FALCON512_CLEAN_verify_raw.constprop.0>
   100a4:	00100793          	li	a5,1
   100a8:	02f50663          	beq	a0,a5,100d4 <main+0x60>
   100ac:	00014537          	lui	a0,0x14
   100b0:	b3c50513          	addi	a0,a0,-1220 # 13b3c <__errno+0xc>
   100b4:	149000ef          	jal	ra,109fc <puts>
   100b8:	000032b7          	lui	t0,0x3
   100bc:	02028293          	addi	t0,t0,32 # 3020 <main-0xd054>
   100c0:	00510133          	add	sp,sp,t0
   100c4:	7ec12083          	lw	ra,2028(sp)
   100c8:	00000513          	li	a0,0
   100cc:	7f010113          	addi	sp,sp,2032
   100d0:	00008067          	ret
   100d4:	00014537          	lui	a0,0x14
   100d8:	b3850513          	addi	a0,a0,-1224 # 13b38 <__errno+0x8>
   100dc:	121000ef          	jal	ra,109fc <puts>
   100e0:	fd9ff06f          	j	100b8 <main+0x44>

000100e4 <register_fini>:
   100e4:	00000793          	li	a5,0
   100e8:	00078863          	beqz	a5,100f8 <register_fini+0x14>
   100ec:	00001517          	auipc	a0,0x1
   100f0:	e6c50513          	addi	a0,a0,-404 # 10f58 <__libc_fini_array>
   100f4:	2c10006f          	j	10bb4 <atexit>
   100f8:	00008067          	ret

000100fc <_start>:
   100fc:	00008197          	auipc	gp,0x8
   10100:	a6c18193          	addi	gp,gp,-1428 # 17b68 <__global_pointer$>
   10104:	04418513          	addi	a0,gp,68 # 17bac <__malloc_max_total_mem>
   10108:	09c18613          	addi	a2,gp,156 # 17c04 <__BSS_END__>
   1010c:	40a60633          	sub	a2,a2,a0
   10110:	00000593          	li	a1,0
   10114:	740000ef          	jal	ra,10854 <memset>
   10118:	00001517          	auipc	a0,0x1
   1011c:	a9c50513          	addi	a0,a0,-1380 # 10bb4 <atexit>
   10120:	00050863          	beqz	a0,10130 <_start+0x34>
   10124:	00001517          	auipc	a0,0x1
   10128:	e3450513          	addi	a0,a0,-460 # 10f58 <__libc_fini_array>
   1012c:	289000ef          	jal	ra,10bb4 <atexit>
   10130:	690000ef          	jal	ra,107c0 <__libc_init_array>
   10134:	00012503          	lw	a0,0(sp)
   10138:	00410593          	addi	a1,sp,4
   1013c:	00000613          	li	a2,0
   10140:	f35ff0ef          	jal	ra,10074 <main>
   10144:	64c0006f          	j	10790 <exit>

00010148 <__do_global_dtors_aux>:
   10148:	ff010113          	addi	sp,sp,-16
   1014c:	00812423          	sw	s0,8(sp)
   10150:	05818413          	addi	s0,gp,88 # 17bc0 <completed.1>
   10154:	00044783          	lbu	a5,0(s0)
   10158:	00112623          	sw	ra,12(sp)
   1015c:	02079263          	bnez	a5,10180 <__do_global_dtors_aux+0x38>
   10160:	00000793          	li	a5,0
   10164:	00078a63          	beqz	a5,10178 <__do_global_dtors_aux+0x30>
   10168:	00007517          	auipc	a0,0x7
   1016c:	1ec50513          	addi	a0,a0,492 # 17354 <__FRAME_END__>
   10170:	00000097          	auipc	ra,0x0
   10174:	000000e7          	jalr	zero # 0 <main-0x10074>
   10178:	00100793          	li	a5,1
   1017c:	00f40023          	sb	a5,0(s0)
   10180:	00c12083          	lw	ra,12(sp)
   10184:	00812403          	lw	s0,8(sp)
   10188:	01010113          	addi	sp,sp,16
   1018c:	00008067          	ret

00010190 <frame_dummy>:
   10190:	00000793          	li	a5,0
   10194:	00078c63          	beqz	a5,101ac <frame_dummy+0x1c>
   10198:	05c18593          	addi	a1,gp,92 # 17bc4 <object.0>
   1019c:	00007517          	auipc	a0,0x7
   101a0:	1b850513          	addi	a0,a0,440 # 17354 <__FRAME_END__>
   101a4:	00000317          	auipc	t1,0x0
   101a8:	00000067          	jr	zero # 0 <main-0x10074>
   101ac:	00008067          	ret

000101b0 <mq_add>:
   101b0:	ffffd7b7          	lui	a5,0xffffd
   101b4:	fff78793          	addi	a5,a5,-1 # ffffcfff <__BSS_END__+0xfffe53fb>
   101b8:	00f585b3          	add	a1,a1,a5
   101bc:	00a585b3          	add	a1,a1,a0
   101c0:	000037b7          	lui	a5,0x3
   101c4:	41f5d513          	srai	a0,a1,0x1f
   101c8:	00178793          	addi	a5,a5,1 # 3001 <main-0xd073>
   101cc:	00f57533          	and	a0,a0,a5
   101d0:	00b50533          	add	a0,a0,a1
   101d4:	00008067          	ret

000101d8 <mq_sub>:
   101d8:	40b505b3          	sub	a1,a0,a1
   101dc:	000037b7          	lui	a5,0x3
   101e0:	41f5d513          	srai	a0,a1,0x1f
   101e4:	00178793          	addi	a5,a5,1 # 3001 <main-0xd073>
   101e8:	00f57533          	and	a0,a0,a5
   101ec:	00b50533          	add	a0,a0,a1
   101f0:	00008067          	ret

000101f4 <mq_rshift1>:
   101f4:	00157793          	andi	a5,a0,1
   101f8:	00003737          	lui	a4,0x3
   101fc:	00170713          	addi	a4,a4,1 # 3001 <main-0xd073>
   10200:	40f007b3          	neg	a5,a5
   10204:	00e7f7b3          	and	a5,a5,a4
   10208:	00a78533          	add	a0,a5,a0
   1020c:	00155513          	srli	a0,a0,0x1
   10210:	00008067          	ret

00010214 <mq_montymul>:
   10214:	02b50533          	mul	a0,a0,a1
   10218:	00151713          	slli	a4,a0,0x1
   1021c:	00a70733          	add	a4,a4,a0
   10220:	00c71713          	slli	a4,a4,0xc
   10224:	40a70733          	sub	a4,a4,a0
   10228:	01071713          	slli	a4,a4,0x10
   1022c:	01075713          	srli	a4,a4,0x10
   10230:	00171793          	slli	a5,a4,0x1
   10234:	00e787b3          	add	a5,a5,a4
   10238:	00c79793          	slli	a5,a5,0xc
   1023c:	00e787b3          	add	a5,a5,a4
   10240:	00a787b3          	add	a5,a5,a0
   10244:	ffffd737          	lui	a4,0xffffd
   10248:	fff70713          	addi	a4,a4,-1 # ffffcfff <__BSS_END__+0xfffe53fb>
   1024c:	0107d793          	srli	a5,a5,0x10
   10250:	00e787b3          	add	a5,a5,a4
   10254:	00003737          	lui	a4,0x3
   10258:	41f7d513          	srai	a0,a5,0x1f
   1025c:	00170713          	addi	a4,a4,1 # 3001 <main-0xd073>
   10260:	00e57533          	and	a0,a0,a4
   10264:	00f50533          	add	a0,a0,a5
   10268:	00008067          	ret

0001026c <PQCLEAN_FALCON512_CLEAN_is_short.constprop.0>:
   1026c:	000156b7          	lui	a3,0x15
   10270:	00015837          	lui	a6,0x15
   10274:	35268693          	addi	a3,a3,850 # 15352 <sig+0x2>
   10278:	75080813          	addi	a6,a6,1872 # 15750 <sig+0x400>
   1027c:	0f800713          	li	a4,248
   10280:	00000593          	li	a1,0
   10284:	00000613          	li	a2,0
   10288:	00c0006f          	j	10294 <PQCLEAN_FALCON512_CLEAN_is_short.constprop.0+0x28>
   1028c:	00069703          	lh	a4,0(a3)
   10290:	00268693          	addi	a3,a3,2
   10294:	00051783          	lh	a5,0(a0)
   10298:	02e70733          	mul	a4,a4,a4
   1029c:	00250513          	addi	a0,a0,2
   102a0:	02f787b3          	mul	a5,a5,a5
   102a4:	00c787b3          	add	a5,a5,a2
   102a8:	00f70633          	add	a2,a4,a5
   102ac:	00c7e7b3          	or	a5,a5,a2
   102b0:	00f5e5b3          	or	a1,a1,a5
   102b4:	fcd81ce3          	bne	a6,a3,1028c <PQCLEAN_FALCON512_CLEAN_is_short.constprop.0+0x20>
   102b8:	41f5d593          	srai	a1,a1,0x1f
   102bc:	02984537          	lui	a0,0x2984
   102c0:	00c5e5b3          	or	a1,a1,a2
   102c4:	5d650513          	addi	a0,a0,1494 # 29845d6 <__BSS_END__+0x296c9d2>
   102c8:	00a5b533          	sltu	a0,a1,a0
   102cc:	00008067          	ret

000102d0 <mq_iNTT.constprop.0>:
   102d0:	fa010113          	addi	sp,sp,-96
   102d4:	00900793          	li	a5,9
   102d8:	03a12823          	sw	s10,48(sp)
   102dc:	00f12a23          	sw	a5,20(sp)
   102e0:	00014d37          	lui	s10,0x14
   102e4:	20000793          	li	a5,512
   102e8:	04912a23          	sw	s1,84(sp)
   102ec:	00f12823          	sw	a5,16(sp)
   102f0:	000014b7          	lui	s1,0x1
   102f4:	b50d0793          	addi	a5,s10,-1200 # 13b50 <iGMb>
   102f8:	05412423          	sw	s4,72(sp)
   102fc:	05612023          	sw	s6,64(sp)
   10300:	04112e23          	sw	ra,92(sp)
   10304:	04812c23          	sw	s0,88(sp)
   10308:	05212823          	sw	s2,80(sp)
   1030c:	05312623          	sw	s3,76(sp)
   10310:	05512223          	sw	s5,68(sp)
   10314:	03712e23          	sw	s7,60(sp)
   10318:	03812c23          	sw	s8,56(sp)
   1031c:	03912a23          	sw	s9,52(sp)
   10320:	03b12623          	sw	s11,44(sp)
   10324:	00050a13          	mv	s4,a0
   10328:	5e148493          	addi	s1,s1,1505 # 15e1 <main-0xea93>
   1032c:	00100b13          	li	s6,1
   10330:	00f12c23          	sw	a5,24(sp)
   10334:	01012783          	lw	a5,16(sp)
   10338:	001b1b93          	slli	s7,s6,0x1
   1033c:	002b1713          	slli	a4,s6,0x2
   10340:	0017d793          	srli	a5,a5,0x1
   10344:	00178993          	addi	s3,a5,1
   10348:	00279a93          	slli	s5,a5,0x2
   1034c:	00f12e23          	sw	a5,28(sp)
   10350:	01812783          	lw	a5,24(sp)
   10354:	00199993          	slli	s3,s3,0x1
   10358:	00e12623          	sw	a4,12(sp)
   1035c:	013789b3          	add	s3,a5,s3
   10360:	017a0433          	add	s0,s4,s7
   10364:	01578ab3          	add	s5,a5,s5
   10368:	00000913          	li	s2,0
   1036c:	00191793          	slli	a5,s2,0x1
   10370:	012b06b3          	add	a3,s6,s2
   10374:	00fa0db3          	add	s11,s4,a5
   10378:	00040d13          	mv	s10,s0
   1037c:	04d97063          	bgeu	s2,a3,103bc <mq_iNTT.constprop.0+0xec>
   10380:	000ddc83          	lhu	s9,0(s11)
   10384:	000d5c03          	lhu	s8,0(s10)
   10388:	002d8d93          	addi	s11,s11,2
   1038c:	000c8513          	mv	a0,s9
   10390:	000c0593          	mv	a1,s8
   10394:	e1dff0ef          	jal	ra,101b0 <mq_add>
   10398:	fead9f23          	sh	a0,-2(s11)
   1039c:	000c0593          	mv	a1,s8
   103a0:	000c8513          	mv	a0,s9
   103a4:	e35ff0ef          	jal	ra,101d8 <mq_sub>
   103a8:	00048593          	mv	a1,s1
   103ac:	e69ff0ef          	jal	ra,10214 <mq_montymul>
   103b0:	00ad1023          	sh	a0,0(s10)
   103b4:	002d0d13          	addi	s10,s10,2
   103b8:	fdb414e3          	bne	s0,s11,10380 <mq_iNTT.constprop.0+0xb0>
   103bc:	00c12783          	lw	a5,12(sp)
   103c0:	01790933          	add	s2,s2,s7
   103c4:	00f40433          	add	s0,s0,a5
   103c8:	013a8863          	beq	s5,s3,103d8 <mq_iNTT.constprop.0+0x108>
   103cc:	0009d483          	lhu	s1,0(s3)
   103d0:	00298993          	addi	s3,s3,2
   103d4:	f99ff06f          	j	1036c <mq_iNTT.constprop.0+0x9c>
   103d8:	01412783          	lw	a5,20(sp)
   103dc:	fff78793          	addi	a5,a5,-1
   103e0:	00f12a23          	sw	a5,20(sp)
   103e4:	02078663          	beqz	a5,10410 <mq_iNTT.constprop.0+0x140>
   103e8:	01012783          	lw	a5,16(sp)
   103ec:	01812703          	lw	a4,24(sp)
   103f0:	000b8b13          	mv	s6,s7
   103f4:	0027d793          	srli	a5,a5,0x2
   103f8:	00179793          	slli	a5,a5,0x1
   103fc:	00f707b3          	add	a5,a4,a5
   10400:	0007d483          	lhu	s1,0(a5)
   10404:	01c12783          	lw	a5,28(sp)
   10408:	00f12823          	sw	a5,16(sp)
   1040c:	f29ff06f          	j	10334 <mq_iNTT.constprop.0+0x64>
   10410:	00001437          	lui	s0,0x1
   10414:	00900493          	li	s1,9
   10418:	ffb40413          	addi	s0,s0,-5 # ffb <main-0xf079>
   1041c:	00040513          	mv	a0,s0
   10420:	dd5ff0ef          	jal	ra,101f4 <mq_rshift1>
   10424:	fff48493          	addi	s1,s1,-1
   10428:	00050413          	mv	s0,a0
   1042c:	fe0498e3          	bnez	s1,1041c <mq_iNTT.constprop.0+0x14c>
   10430:	400a0493          	addi	s1,s4,1024
   10434:	000a5503          	lhu	a0,0(s4)
   10438:	00040593          	mv	a1,s0
   1043c:	002a0a13          	addi	s4,s4,2
   10440:	dd5ff0ef          	jal	ra,10214 <mq_montymul>
   10444:	feaa1f23          	sh	a0,-2(s4)
   10448:	ff4496e3          	bne	s1,s4,10434 <mq_iNTT.constprop.0+0x164>
   1044c:	05c12083          	lw	ra,92(sp)
   10450:	05812403          	lw	s0,88(sp)
   10454:	05412483          	lw	s1,84(sp)
   10458:	05012903          	lw	s2,80(sp)
   1045c:	04c12983          	lw	s3,76(sp)
   10460:	04812a03          	lw	s4,72(sp)
   10464:	04412a83          	lw	s5,68(sp)
   10468:	04012b03          	lw	s6,64(sp)
   1046c:	03c12b83          	lw	s7,60(sp)
   10470:	03812c03          	lw	s8,56(sp)
   10474:	03412c83          	lw	s9,52(sp)
   10478:	03012d03          	lw	s10,48(sp)
   1047c:	02c12d83          	lw	s11,44(sp)
   10480:	06010113          	addi	sp,sp,96
   10484:	00008067          	ret

00010488 <mq_NTT.constprop.0>:
   10488:	fb010113          	addi	sp,sp,-80
   1048c:	03a12023          	sw	s10,32(sp)
   10490:	00014d37          	lui	s10,0x14
   10494:	350d0713          	addi	a4,s10,848 # 14350 <GMb>
   10498:	00900793          	li	a5,9
   1049c:	04912223          	sw	s1,68(sp)
   104a0:	00e12423          	sw	a4,8(sp)
   104a4:	000024b7          	lui	s1,0x2
   104a8:	00200713          	li	a4,2
   104ac:	03512a23          	sw	s5,52(sp)
   104b0:	03712623          	sw	s7,44(sp)
   104b4:	00f12223          	sw	a5,4(sp)
   104b8:	04112623          	sw	ra,76(sp)
   104bc:	04812423          	sw	s0,72(sp)
   104c0:	05212023          	sw	s2,64(sp)
   104c4:	03312e23          	sw	s3,60(sp)
   104c8:	03412c23          	sw	s4,56(sp)
   104cc:	03612823          	sw	s6,48(sp)
   104d0:	03812423          	sw	s8,40(sp)
   104d4:	03912223          	sw	s9,36(sp)
   104d8:	01b12e23          	sw	s11,28(sp)
   104dc:	00050b93          	mv	s7,a0
   104e0:	ed048493          	addi	s1,s1,-304 # 1ed0 <main-0xe1a4>
   104e4:	00100793          	li	a5,1
   104e8:	20000a93          	li	s5,512
   104ec:	00e12623          	sw	a4,12(sp)
   104f0:	00812703          	lw	a4,8(sp)
   104f4:	00178993          	addi	s3,a5,1
   104f8:	001adb13          	srli	s6,s5,0x1
   104fc:	00279793          	slli	a5,a5,0x2
   10500:	00199993          	slli	s3,s3,0x1
   10504:	001b1413          	slli	s0,s6,0x1
   10508:	00f707b3          	add	a5,a4,a5
   1050c:	013709b3          	add	s3,a4,s3
   10510:	001a9c13          	slli	s8,s5,0x1
   10514:	008b8433          	add	s0,s7,s0
   10518:	00f12023          	sw	a5,0(sp)
   1051c:	00000913          	li	s2,0
   10520:	00191793          	slli	a5,s2,0x1
   10524:	012b06b3          	add	a3,s6,s2
   10528:	00fb8db3          	add	s11,s7,a5
   1052c:	00040d13          	mv	s10,s0
   10530:	04d97263          	bgeu	s2,a3,10574 <mq_NTT.constprop.0+0xec>
   10534:	000d5503          	lhu	a0,0(s10)
   10538:	000ddc83          	lhu	s9,0(s11)
   1053c:	00048593          	mv	a1,s1
   10540:	cd5ff0ef          	jal	ra,10214 <mq_montymul>
   10544:	00050593          	mv	a1,a0
   10548:	00050a13          	mv	s4,a0
   1054c:	000c8513          	mv	a0,s9
   10550:	c61ff0ef          	jal	ra,101b0 <mq_add>
   10554:	00ad9023          	sh	a0,0(s11)
   10558:	000a0593          	mv	a1,s4
   1055c:	000c8513          	mv	a0,s9
   10560:	c79ff0ef          	jal	ra,101d8 <mq_sub>
   10564:	00ad1023          	sh	a0,0(s10)
   10568:	002d8d93          	addi	s11,s11,2
   1056c:	002d0d13          	addi	s10,s10,2
   10570:	fdb412e3          	bne	s0,s11,10534 <mq_NTT.constprop.0+0xac>
   10574:	00012783          	lw	a5,0(sp)
   10578:	01590933          	add	s2,s2,s5
   1057c:	01840433          	add	s0,s0,s8
   10580:	00f98863          	beq	s3,a5,10590 <mq_NTT.constprop.0+0x108>
   10584:	0009d483          	lhu	s1,0(s3)
   10588:	00298993          	addi	s3,s3,2
   1058c:	f95ff06f          	j	10520 <mq_NTT.constprop.0+0x98>
   10590:	00412783          	lw	a5,4(sp)
   10594:	00c12683          	lw	a3,12(sp)
   10598:	fff78713          	addi	a4,a5,-1
   1059c:	00e12223          	sw	a4,4(sp)
   105a0:	00068793          	mv	a5,a3
   105a4:	02070063          	beqz	a4,105c4 <mq_NTT.constprop.0+0x13c>
   105a8:	00169713          	slli	a4,a3,0x1
   105ac:	00812683          	lw	a3,8(sp)
   105b0:	00e12623          	sw	a4,12(sp)
   105b4:	000b0a93          	mv	s5,s6
   105b8:	00e68733          	add	a4,a3,a4
   105bc:	00075483          	lhu	s1,0(a4)
   105c0:	f31ff06f          	j	104f0 <mq_NTT.constprop.0+0x68>
   105c4:	04c12083          	lw	ra,76(sp)
   105c8:	04812403          	lw	s0,72(sp)
   105cc:	04412483          	lw	s1,68(sp)
   105d0:	04012903          	lw	s2,64(sp)
   105d4:	03c12983          	lw	s3,60(sp)
   105d8:	03812a03          	lw	s4,56(sp)
   105dc:	03412a83          	lw	s5,52(sp)
   105e0:	03012b03          	lw	s6,48(sp)
   105e4:	02c12b83          	lw	s7,44(sp)
   105e8:	02812c03          	lw	s8,40(sp)
   105ec:	02412c83          	lw	s9,36(sp)
   105f0:	02012d03          	lw	s10,32(sp)
   105f4:	01c12d83          	lw	s11,28(sp)
   105f8:	05010113          	addi	sp,sp,80
   105fc:	00008067          	ret

00010600 <mq_poly_montymul_ntt.constprop.0>:
   10600:	ff010113          	addi	sp,sp,-16
   10604:	00812423          	sw	s0,8(sp)
   10608:	00015437          	lui	s0,0x15
   1060c:	b5040413          	addi	s0,s0,-1200 # 14b50 <h>
   10610:	000035b7          	lui	a1,0x3
   10614:	00912223          	sw	s1,4(sp)
   10618:	01212023          	sw	s2,0(sp)
   1061c:	00112623          	sw	ra,12(sp)
   10620:	00050493          	mv	s1,a0
   10624:	40040913          	addi	s2,s0,1024
   10628:	db058593          	addi	a1,a1,-592 # 2db0 <main-0xd2c4>
   1062c:	0080006f          	j	10634 <mq_poly_montymul_ntt.constprop.0+0x34>
   10630:	00045583          	lhu	a1,0(s0)
   10634:	0004d503          	lhu	a0,0(s1)
   10638:	00240413          	addi	s0,s0,2
   1063c:	00248493          	addi	s1,s1,2
   10640:	bd5ff0ef          	jal	ra,10214 <mq_montymul>
   10644:	fea49f23          	sh	a0,-2(s1)
   10648:	fe8914e3          	bne	s2,s0,10630 <mq_poly_montymul_ntt.constprop.0+0x30>
   1064c:	00c12083          	lw	ra,12(sp)
   10650:	00812403          	lw	s0,8(sp)
   10654:	00412483          	lw	s1,4(sp)
   10658:	00012903          	lw	s2,0(sp)
   1065c:	01010113          	addi	sp,sp,16
   10660:	00008067          	ret

00010664 <mq_poly_sub.constprop.0>:
   10664:	ff010113          	addi	sp,sp,-16
   10668:	00812423          	sw	s0,8(sp)
   1066c:	00016437          	lui	s0,0x16
   10670:	b5040413          	addi	s0,s0,-1200 # 15b50 <hm>
   10674:	000015b7          	lui	a1,0x1
   10678:	00912223          	sw	s1,4(sp)
   1067c:	01212023          	sw	s2,0(sp)
   10680:	00112623          	sw	ra,12(sp)
   10684:	00050493          	mv	s1,a0
   10688:	40040913          	addi	s2,s0,1024
   1068c:	c1558593          	addi	a1,a1,-1003 # c15 <main-0xf45f>
   10690:	0080006f          	j	10698 <mq_poly_sub.constprop.0+0x34>
   10694:	00045583          	lhu	a1,0(s0)
   10698:	0004d503          	lhu	a0,0(s1)
   1069c:	00240413          	addi	s0,s0,2
   106a0:	00248493          	addi	s1,s1,2
   106a4:	b35ff0ef          	jal	ra,101d8 <mq_sub>
   106a8:	fea49f23          	sh	a0,-2(s1)
   106ac:	fe8914e3          	bne	s2,s0,10694 <mq_poly_sub.constprop.0+0x30>
   106b0:	00c12083          	lw	ra,12(sp)
   106b4:	00812403          	lw	s0,8(sp)
   106b8:	00412483          	lw	s1,4(sp)
   106bc:	00012903          	lw	s2,0(sp)
   106c0:	01010113          	addi	sp,sp,16
   106c4:	00008067          	ret

000106c8 <PQCLEAN_FALCON512_CLEAN_verify_raw.constprop.0>:
   106c8:	ff010113          	addi	sp,sp,-16
   106cc:	00015737          	lui	a4,0x15
   106d0:	00015837          	lui	a6,0x15
   106d4:	000035b7          	lui	a1,0x3
   106d8:	00812423          	sw	s0,8(sp)
   106dc:	00912223          	sw	s1,4(sp)
   106e0:	00112623          	sw	ra,12(sp)
   106e4:	00050493          	mv	s1,a0
   106e8:	00050413          	mv	s0,a0
   106ec:	35270713          	addi	a4,a4,850 # 15352 <sig+0x2>
   106f0:	75080813          	addi	a6,a6,1872 # 15750 <sig+0x400>
   106f4:	00050693          	mv	a3,a0
   106f8:	0f800613          	li	a2,248
   106fc:	00158593          	addi	a1,a1,1 # 3001 <main-0xd073>
   10700:	00c0006f          	j	1070c <PQCLEAN_FALCON512_CLEAN_verify_raw.constprop.0+0x44>
   10704:	00071603          	lh	a2,0(a4)
   10708:	00270713          	addi	a4,a4,2
   1070c:	41f65793          	srai	a5,a2,0x1f
   10710:	00b7f7b3          	and	a5,a5,a1
   10714:	00c787b3          	add	a5,a5,a2
   10718:	00f69023          	sh	a5,0(a3)
   1071c:	00268693          	addi	a3,a3,2
   10720:	fee812e3          	bne	a6,a4,10704 <PQCLEAN_FALCON512_CLEAN_verify_raw.constprop.0+0x3c>
   10724:	00048513          	mv	a0,s1
   10728:	d61ff0ef          	jal	ra,10488 <mq_NTT.constprop.0>
   1072c:	00048513          	mv	a0,s1
   10730:	ed1ff0ef          	jal	ra,10600 <mq_poly_montymul_ntt.constprop.0>
   10734:	00048513          	mv	a0,s1
   10738:	b99ff0ef          	jal	ra,102d0 <mq_iNTT.constprop.0>
   1073c:	00048513          	mv	a0,s1
   10740:	f25ff0ef          	jal	ra,10664 <mq_poly_sub.constprop.0>
   10744:	00002637          	lui	a2,0x2
   10748:	000036b7          	lui	a3,0x3
   1074c:	40048593          	addi	a1,s1,1024
   10750:	80060613          	addi	a2,a2,-2048 # 1800 <main-0xe874>
   10754:	00168693          	addi	a3,a3,1 # 3001 <main-0xd073>
   10758:	00045703          	lhu	a4,0(s0)
   1075c:	00240413          	addi	s0,s0,2
   10760:	40e607b3          	sub	a5,a2,a4
   10764:	41f7d793          	srai	a5,a5,0x1f
   10768:	00d7f7b3          	and	a5,a5,a3
   1076c:	40f70733          	sub	a4,a4,a5
   10770:	fee41f23          	sh	a4,-2(s0)
   10774:	fe8592e3          	bne	a1,s0,10758 <PQCLEAN_FALCON512_CLEAN_verify_raw.constprop.0+0x90>
   10778:	00812403          	lw	s0,8(sp)
   1077c:	00c12083          	lw	ra,12(sp)
   10780:	00048513          	mv	a0,s1
   10784:	00412483          	lw	s1,4(sp)
   10788:	01010113          	addi	sp,sp,16
   1078c:	ae1ff06f          	j	1026c <PQCLEAN_FALCON512_CLEAN_is_short.constprop.0>

00010790 <exit>:
   10790:	ff010113          	addi	sp,sp,-16
   10794:	00000593          	li	a1,0
   10798:	00812423          	sw	s0,8(sp)
   1079c:	00112623          	sw	ra,12(sp)
   107a0:	00050413          	mv	s0,a0
   107a4:	2f0000ef          	jal	ra,10a94 <__call_exitprocs>
   107a8:	0301a503          	lw	a0,48(gp) # 17b98 <_global_impure_ptr>
   107ac:	03c52783          	lw	a5,60(a0)
   107b0:	00078463          	beqz	a5,107b8 <exit+0x28>
   107b4:	000780e7          	jalr	a5
   107b8:	00040513          	mv	a0,s0
   107bc:	0b8030ef          	jal	ra,13874 <_exit>

000107c0 <__libc_init_array>:
   107c0:	ff010113          	addi	sp,sp,-16
   107c4:	00812423          	sw	s0,8(sp)
   107c8:	01212023          	sw	s2,0(sp)
   107cc:	00007417          	auipc	s0,0x7
   107d0:	b8c40413          	addi	s0,s0,-1140 # 17358 <__init_array_start>
   107d4:	00007917          	auipc	s2,0x7
   107d8:	b8490913          	addi	s2,s2,-1148 # 17358 <__init_array_start>
   107dc:	40890933          	sub	s2,s2,s0
   107e0:	00112623          	sw	ra,12(sp)
   107e4:	00912223          	sw	s1,4(sp)
   107e8:	40295913          	srai	s2,s2,0x2
   107ec:	00090e63          	beqz	s2,10808 <__libc_init_array+0x48>
   107f0:	00000493          	li	s1,0
   107f4:	00042783          	lw	a5,0(s0)
   107f8:	00148493          	addi	s1,s1,1
   107fc:	00440413          	addi	s0,s0,4
   10800:	000780e7          	jalr	a5
   10804:	fe9918e3          	bne	s2,s1,107f4 <__libc_init_array+0x34>
   10808:	00007417          	auipc	s0,0x7
   1080c:	b5040413          	addi	s0,s0,-1200 # 17358 <__init_array_start>
   10810:	00007917          	auipc	s2,0x7
   10814:	b5090913          	addi	s2,s2,-1200 # 17360 <__do_global_dtors_aux_fini_array_entry>
   10818:	40890933          	sub	s2,s2,s0
   1081c:	40295913          	srai	s2,s2,0x2
   10820:	00090e63          	beqz	s2,1083c <__libc_init_array+0x7c>
   10824:	00000493          	li	s1,0
   10828:	00042783          	lw	a5,0(s0)
   1082c:	00148493          	addi	s1,s1,1
   10830:	00440413          	addi	s0,s0,4
   10834:	000780e7          	jalr	a5
   10838:	fe9918e3          	bne	s2,s1,10828 <__libc_init_array+0x68>
   1083c:	00c12083          	lw	ra,12(sp)
   10840:	00812403          	lw	s0,8(sp)
   10844:	00412483          	lw	s1,4(sp)
   10848:	00012903          	lw	s2,0(sp)
   1084c:	01010113          	addi	sp,sp,16
   10850:	00008067          	ret

00010854 <memset>:
   10854:	00f00313          	li	t1,15
   10858:	00050713          	mv	a4,a0
   1085c:	02c37e63          	bgeu	t1,a2,10898 <memset+0x44>
   10860:	00f77793          	andi	a5,a4,15
   10864:	0a079063          	bnez	a5,10904 <memset+0xb0>
   10868:	08059263          	bnez	a1,108ec <memset+0x98>
   1086c:	ff067693          	andi	a3,a2,-16
   10870:	00f67613          	andi	a2,a2,15
   10874:	00e686b3          	add	a3,a3,a4
   10878:	00b72023          	sw	a1,0(a4)
   1087c:	00b72223          	sw	a1,4(a4)
   10880:	00b72423          	sw	a1,8(a4)
   10884:	00b72623          	sw	a1,12(a4)
   10888:	01070713          	addi	a4,a4,16
   1088c:	fed766e3          	bltu	a4,a3,10878 <memset+0x24>
   10890:	00061463          	bnez	a2,10898 <memset+0x44>
   10894:	00008067          	ret
   10898:	40c306b3          	sub	a3,t1,a2
   1089c:	00269693          	slli	a3,a3,0x2
   108a0:	00000297          	auipc	t0,0x0
   108a4:	005686b3          	add	a3,a3,t0
   108a8:	00c68067          	jr	12(a3)
   108ac:	00b70723          	sb	a1,14(a4)
   108b0:	00b706a3          	sb	a1,13(a4)
   108b4:	00b70623          	sb	a1,12(a4)
   108b8:	00b705a3          	sb	a1,11(a4)
   108bc:	00b70523          	sb	a1,10(a4)
   108c0:	00b704a3          	sb	a1,9(a4)
   108c4:	00b70423          	sb	a1,8(a4)
   108c8:	00b703a3          	sb	a1,7(a4)
   108cc:	00b70323          	sb	a1,6(a4)
   108d0:	00b702a3          	sb	a1,5(a4)
   108d4:	00b70223          	sb	a1,4(a4)
   108d8:	00b701a3          	sb	a1,3(a4)
   108dc:	00b70123          	sb	a1,2(a4)
   108e0:	00b700a3          	sb	a1,1(a4)
   108e4:	00b70023          	sb	a1,0(a4)
   108e8:	00008067          	ret
   108ec:	0ff5f593          	zext.b	a1,a1
   108f0:	00859693          	slli	a3,a1,0x8
   108f4:	00d5e5b3          	or	a1,a1,a3
   108f8:	01059693          	slli	a3,a1,0x10
   108fc:	00d5e5b3          	or	a1,a1,a3
   10900:	f6dff06f          	j	1086c <memset+0x18>
   10904:	00279693          	slli	a3,a5,0x2
   10908:	00000297          	auipc	t0,0x0
   1090c:	005686b3          	add	a3,a3,t0
   10910:	00008293          	mv	t0,ra
   10914:	fa0680e7          	jalr	-96(a3)
   10918:	00028093          	mv	ra,t0
   1091c:	ff078793          	addi	a5,a5,-16
   10920:	40f70733          	sub	a4,a4,a5
   10924:	00f60633          	add	a2,a2,a5
   10928:	f6c378e3          	bgeu	t1,a2,10898 <memset+0x44>
   1092c:	f3dff06f          	j	10868 <memset+0x14>

00010930 <_puts_r>:
   10930:	fc010113          	addi	sp,sp,-64
   10934:	02812c23          	sw	s0,56(sp)
   10938:	00050413          	mv	s0,a0
   1093c:	00058513          	mv	a0,a1
   10940:	02912a23          	sw	s1,52(sp)
   10944:	02112e23          	sw	ra,60(sp)
   10948:	00058493          	mv	s1,a1
   1094c:	0bc000ef          	jal	ra,10a08 <strlen>
   10950:	00150713          	addi	a4,a0,1
   10954:	00006697          	auipc	a3,0x6
   10958:	9fc68693          	addi	a3,a3,-1540 # 16350 <hm+0x800>
   1095c:	00e12e23          	sw	a4,28(sp)
   10960:	03842783          	lw	a5,56(s0)
   10964:	02010713          	addi	a4,sp,32
   10968:	02d12423          	sw	a3,40(sp)
   1096c:	00e12a23          	sw	a4,20(sp)
   10970:	00100693          	li	a3,1
   10974:	00200713          	li	a4,2
   10978:	02912023          	sw	s1,32(sp)
   1097c:	02a12223          	sw	a0,36(sp)
   10980:	02d12623          	sw	a3,44(sp)
   10984:	00e12c23          	sw	a4,24(sp)
   10988:	00842583          	lw	a1,8(s0)
   1098c:	04078e63          	beqz	a5,109e8 <_puts_r+0xb8>
   10990:	00c59783          	lh	a5,12(a1)
   10994:	01279713          	slli	a4,a5,0x12
   10998:	02074263          	bltz	a4,109bc <_puts_r+0x8c>
   1099c:	0645a703          	lw	a4,100(a1)
   109a0:	000026b7          	lui	a3,0x2
   109a4:	00d7e7b3          	or	a5,a5,a3
   109a8:	ffffe6b7          	lui	a3,0xffffe
   109ac:	fff68693          	addi	a3,a3,-1 # ffffdfff <__BSS_END__+0xfffe63fb>
   109b0:	00d77733          	and	a4,a4,a3
   109b4:	00f59623          	sh	a5,12(a1)
   109b8:	06e5a223          	sw	a4,100(a1)
   109bc:	01410613          	addi	a2,sp,20
   109c0:	00040513          	mv	a0,s0
   109c4:	5f0000ef          	jal	ra,10fb4 <__sfvwrite_r>
   109c8:	03c12083          	lw	ra,60(sp)
   109cc:	03812403          	lw	s0,56(sp)
   109d0:	00a03533          	snez	a0,a0
   109d4:	40a00533          	neg	a0,a0
   109d8:	03412483          	lw	s1,52(sp)
   109dc:	00a56513          	ori	a0,a0,10
   109e0:	04010113          	addi	sp,sp,64
   109e4:	00008067          	ret
   109e8:	00040513          	mv	a0,s0
   109ec:	00b12623          	sw	a1,12(sp)
   109f0:	528000ef          	jal	ra,10f18 <__sinit>
   109f4:	00c12583          	lw	a1,12(sp)
   109f8:	f99ff06f          	j	10990 <_puts_r+0x60>

000109fc <puts>:
   109fc:	00050593          	mv	a1,a0
   10a00:	0381a503          	lw	a0,56(gp) # 17ba0 <_impure_ptr>
   10a04:	f2dff06f          	j	10930 <_puts_r>

00010a08 <strlen>:
   10a08:	00357793          	andi	a5,a0,3
   10a0c:	00050713          	mv	a4,a0
   10a10:	04079c63          	bnez	a5,10a68 <strlen+0x60>
   10a14:	7f7f86b7          	lui	a3,0x7f7f8
   10a18:	f7f68693          	addi	a3,a3,-129 # 7f7f7f7f <__BSS_END__+0x7f7e037b>
   10a1c:	fff00593          	li	a1,-1
   10a20:	00072603          	lw	a2,0(a4)
   10a24:	00470713          	addi	a4,a4,4
   10a28:	00d677b3          	and	a5,a2,a3
   10a2c:	00d787b3          	add	a5,a5,a3
   10a30:	00c7e7b3          	or	a5,a5,a2
   10a34:	00d7e7b3          	or	a5,a5,a3
   10a38:	feb784e3          	beq	a5,a1,10a20 <strlen+0x18>
   10a3c:	ffc74683          	lbu	a3,-4(a4)
   10a40:	40a707b3          	sub	a5,a4,a0
   10a44:	04068463          	beqz	a3,10a8c <strlen+0x84>
   10a48:	ffd74683          	lbu	a3,-3(a4)
   10a4c:	02068c63          	beqz	a3,10a84 <strlen+0x7c>
   10a50:	ffe74503          	lbu	a0,-2(a4)
   10a54:	00a03533          	snez	a0,a0
   10a58:	00f50533          	add	a0,a0,a5
   10a5c:	ffe50513          	addi	a0,a0,-2
   10a60:	00008067          	ret
   10a64:	fa0688e3          	beqz	a3,10a14 <strlen+0xc>
   10a68:	00074783          	lbu	a5,0(a4)
   10a6c:	00170713          	addi	a4,a4,1
   10a70:	00377693          	andi	a3,a4,3
   10a74:	fe0798e3          	bnez	a5,10a64 <strlen+0x5c>
   10a78:	40a70733          	sub	a4,a4,a0
   10a7c:	fff70513          	addi	a0,a4,-1
   10a80:	00008067          	ret
   10a84:	ffd78513          	addi	a0,a5,-3
   10a88:	00008067          	ret
   10a8c:	ffc78513          	addi	a0,a5,-4
   10a90:	00008067          	ret

00010a94 <__call_exitprocs>:
   10a94:	fd010113          	addi	sp,sp,-48
   10a98:	01412c23          	sw	s4,24(sp)
   10a9c:	0301aa03          	lw	s4,48(gp) # 17b98 <_global_impure_ptr>
   10aa0:	03212023          	sw	s2,32(sp)
   10aa4:	148a2903          	lw	s2,328(s4)
   10aa8:	02112623          	sw	ra,44(sp)
   10aac:	02812423          	sw	s0,40(sp)
   10ab0:	02912223          	sw	s1,36(sp)
   10ab4:	01312e23          	sw	s3,28(sp)
   10ab8:	01512a23          	sw	s5,20(sp)
   10abc:	01612823          	sw	s6,16(sp)
   10ac0:	01712623          	sw	s7,12(sp)
   10ac4:	01812423          	sw	s8,8(sp)
   10ac8:	04090063          	beqz	s2,10b08 <__call_exitprocs+0x74>
   10acc:	00050b13          	mv	s6,a0
   10ad0:	00058b93          	mv	s7,a1
   10ad4:	00100a93          	li	s5,1
   10ad8:	fff00993          	li	s3,-1
   10adc:	00492483          	lw	s1,4(s2)
   10ae0:	fff48413          	addi	s0,s1,-1
   10ae4:	02044263          	bltz	s0,10b08 <__call_exitprocs+0x74>
   10ae8:	00249493          	slli	s1,s1,0x2
   10aec:	009904b3          	add	s1,s2,s1
   10af0:	040b8463          	beqz	s7,10b38 <__call_exitprocs+0xa4>
   10af4:	1044a783          	lw	a5,260(s1)
   10af8:	05778063          	beq	a5,s7,10b38 <__call_exitprocs+0xa4>
   10afc:	fff40413          	addi	s0,s0,-1
   10b00:	ffc48493          	addi	s1,s1,-4
   10b04:	ff3416e3          	bne	s0,s3,10af0 <__call_exitprocs+0x5c>
   10b08:	02c12083          	lw	ra,44(sp)
   10b0c:	02812403          	lw	s0,40(sp)
   10b10:	02412483          	lw	s1,36(sp)
   10b14:	02012903          	lw	s2,32(sp)
   10b18:	01c12983          	lw	s3,28(sp)
   10b1c:	01812a03          	lw	s4,24(sp)
   10b20:	01412a83          	lw	s5,20(sp)
   10b24:	01012b03          	lw	s6,16(sp)
   10b28:	00c12b83          	lw	s7,12(sp)
   10b2c:	00812c03          	lw	s8,8(sp)
   10b30:	03010113          	addi	sp,sp,48
   10b34:	00008067          	ret
   10b38:	00492783          	lw	a5,4(s2)
   10b3c:	0044a683          	lw	a3,4(s1)
   10b40:	fff78793          	addi	a5,a5,-1
   10b44:	04878e63          	beq	a5,s0,10ba0 <__call_exitprocs+0x10c>
   10b48:	0004a223          	sw	zero,4(s1)
   10b4c:	fa0688e3          	beqz	a3,10afc <__call_exitprocs+0x68>
   10b50:	18892783          	lw	a5,392(s2)
   10b54:	008a9733          	sll	a4,s5,s0
   10b58:	00492c03          	lw	s8,4(s2)
   10b5c:	00f777b3          	and	a5,a4,a5
   10b60:	02079263          	bnez	a5,10b84 <__call_exitprocs+0xf0>
   10b64:	000680e7          	jalr	a3
   10b68:	00492703          	lw	a4,4(s2)
   10b6c:	148a2783          	lw	a5,328(s4)
   10b70:	01871463          	bne	a4,s8,10b78 <__call_exitprocs+0xe4>
   10b74:	f92784e3          	beq	a5,s2,10afc <__call_exitprocs+0x68>
   10b78:	f80788e3          	beqz	a5,10b08 <__call_exitprocs+0x74>
   10b7c:	00078913          	mv	s2,a5
   10b80:	f5dff06f          	j	10adc <__call_exitprocs+0x48>
   10b84:	18c92783          	lw	a5,396(s2)
   10b88:	0844a583          	lw	a1,132(s1)
   10b8c:	00f77733          	and	a4,a4,a5
   10b90:	00071c63          	bnez	a4,10ba8 <__call_exitprocs+0x114>
   10b94:	000b0513          	mv	a0,s6
   10b98:	000680e7          	jalr	a3
   10b9c:	fcdff06f          	j	10b68 <__call_exitprocs+0xd4>
   10ba0:	00892223          	sw	s0,4(s2)
   10ba4:	fa9ff06f          	j	10b4c <__call_exitprocs+0xb8>
   10ba8:	00058513          	mv	a0,a1
   10bac:	000680e7          	jalr	a3
   10bb0:	fb9ff06f          	j	10b68 <__call_exitprocs+0xd4>

00010bb4 <atexit>:
   10bb4:	00050593          	mv	a1,a0
   10bb8:	00000693          	li	a3,0
   10bbc:	00000613          	li	a2,0
   10bc0:	00000513          	li	a0,0
   10bc4:	57d0106f          	j	12940 <__register_exitproc>

00010bc8 <__fp_lock>:
   10bc8:	00000513          	li	a0,0
   10bcc:	00008067          	ret

00010bd0 <_cleanup_r>:
   10bd0:	00002597          	auipc	a1,0x2
   10bd4:	e5858593          	addi	a1,a1,-424 # 12a28 <_fclose_r>
   10bd8:	1310006f          	j	11508 <_fwalk_reent>

00010bdc <__fp_unlock>:
   10bdc:	00000513          	li	a0,0
   10be0:	00008067          	ret

00010be4 <__sinit.part.0>:
   10be4:	fe010113          	addi	sp,sp,-32
   10be8:	00112e23          	sw	ra,28(sp)
   10bec:	00812c23          	sw	s0,24(sp)
   10bf0:	00912a23          	sw	s1,20(sp)
   10bf4:	01212823          	sw	s2,16(sp)
   10bf8:	01312623          	sw	s3,12(sp)
   10bfc:	01412423          	sw	s4,8(sp)
   10c00:	01512223          	sw	s5,4(sp)
   10c04:	01612023          	sw	s6,0(sp)
   10c08:	00452403          	lw	s0,4(a0)
   10c0c:	00000717          	auipc	a4,0x0
   10c10:	fc470713          	addi	a4,a4,-60 # 10bd0 <_cleanup_r>
   10c14:	02e52e23          	sw	a4,60(a0)
   10c18:	2ec50793          	addi	a5,a0,748
   10c1c:	00300713          	li	a4,3
   10c20:	2ee52223          	sw	a4,740(a0)
   10c24:	2ef52423          	sw	a5,744(a0)
   10c28:	2e052023          	sw	zero,736(a0)
   10c2c:	00400793          	li	a5,4
   10c30:	00050913          	mv	s2,a0
   10c34:	00f42623          	sw	a5,12(s0)
   10c38:	00800613          	li	a2,8
   10c3c:	00000593          	li	a1,0
   10c40:	06042223          	sw	zero,100(s0)
   10c44:	00042023          	sw	zero,0(s0)
   10c48:	00042223          	sw	zero,4(s0)
   10c4c:	00042423          	sw	zero,8(s0)
   10c50:	00042823          	sw	zero,16(s0)
   10c54:	00042a23          	sw	zero,20(s0)
   10c58:	00042c23          	sw	zero,24(s0)
   10c5c:	05c40513          	addi	a0,s0,92
   10c60:	bf5ff0ef          	jal	ra,10854 <memset>
   10c64:	00892483          	lw	s1,8(s2)
   10c68:	00002b17          	auipc	s6,0x2
   10c6c:	9b8b0b13          	addi	s6,s6,-1608 # 12620 <__sread>
   10c70:	00002a97          	auipc	s5,0x2
   10c74:	a14a8a93          	addi	s5,s5,-1516 # 12684 <__swrite>
   10c78:	00002a17          	auipc	s4,0x2
   10c7c:	a94a0a13          	addi	s4,s4,-1388 # 1270c <__sseek>
   10c80:	00002997          	auipc	s3,0x2
   10c84:	af498993          	addi	s3,s3,-1292 # 12774 <__sclose>
   10c88:	000107b7          	lui	a5,0x10
   10c8c:	03642023          	sw	s6,32(s0)
   10c90:	03542223          	sw	s5,36(s0)
   10c94:	03442423          	sw	s4,40(s0)
   10c98:	03342623          	sw	s3,44(s0)
   10c9c:	00842e23          	sw	s0,28(s0)
   10ca0:	00978793          	addi	a5,a5,9 # 10009 <main-0x6b>
   10ca4:	00f4a623          	sw	a5,12(s1)
   10ca8:	00800613          	li	a2,8
   10cac:	00000593          	li	a1,0
   10cb0:	0604a223          	sw	zero,100(s1)
   10cb4:	0004a023          	sw	zero,0(s1)
   10cb8:	0004a223          	sw	zero,4(s1)
   10cbc:	0004a423          	sw	zero,8(s1)
   10cc0:	0004a823          	sw	zero,16(s1)
   10cc4:	0004aa23          	sw	zero,20(s1)
   10cc8:	0004ac23          	sw	zero,24(s1)
   10ccc:	05c48513          	addi	a0,s1,92
   10cd0:	b85ff0ef          	jal	ra,10854 <memset>
   10cd4:	00c92403          	lw	s0,12(s2)
   10cd8:	000207b7          	lui	a5,0x20
   10cdc:	0364a023          	sw	s6,32(s1)
   10ce0:	0354a223          	sw	s5,36(s1)
   10ce4:	0344a423          	sw	s4,40(s1)
   10ce8:	0334a623          	sw	s3,44(s1)
   10cec:	0094ae23          	sw	s1,28(s1)
   10cf0:	01278793          	addi	a5,a5,18 # 20012 <__BSS_END__+0x840e>
   10cf4:	00f42623          	sw	a5,12(s0)
   10cf8:	06042223          	sw	zero,100(s0)
   10cfc:	00042023          	sw	zero,0(s0)
   10d00:	00042223          	sw	zero,4(s0)
   10d04:	00042423          	sw	zero,8(s0)
   10d08:	00042823          	sw	zero,16(s0)
   10d0c:	00042a23          	sw	zero,20(s0)
   10d10:	00042c23          	sw	zero,24(s0)
   10d14:	05c40513          	addi	a0,s0,92
   10d18:	00800613          	li	a2,8
   10d1c:	00000593          	li	a1,0
   10d20:	b35ff0ef          	jal	ra,10854 <memset>
   10d24:	01c12083          	lw	ra,28(sp)
   10d28:	03642023          	sw	s6,32(s0)
   10d2c:	03542223          	sw	s5,36(s0)
   10d30:	03442423          	sw	s4,40(s0)
   10d34:	03342623          	sw	s3,44(s0)
   10d38:	00842e23          	sw	s0,28(s0)
   10d3c:	01812403          	lw	s0,24(sp)
   10d40:	00100793          	li	a5,1
   10d44:	02f92c23          	sw	a5,56(s2)
   10d48:	01412483          	lw	s1,20(sp)
   10d4c:	01012903          	lw	s2,16(sp)
   10d50:	00c12983          	lw	s3,12(sp)
   10d54:	00812a03          	lw	s4,8(sp)
   10d58:	00412a83          	lw	s5,4(sp)
   10d5c:	00012b03          	lw	s6,0(sp)
   10d60:	02010113          	addi	sp,sp,32
   10d64:	00008067          	ret

00010d68 <__sfmoreglue>:
   10d68:	ff010113          	addi	sp,sp,-16
   10d6c:	00912223          	sw	s1,4(sp)
   10d70:	06800793          	li	a5,104
   10d74:	fff58493          	addi	s1,a1,-1
   10d78:	02f484b3          	mul	s1,s1,a5
   10d7c:	01212023          	sw	s2,0(sp)
   10d80:	00058913          	mv	s2,a1
   10d84:	00812423          	sw	s0,8(sp)
   10d88:	00112623          	sw	ra,12(sp)
   10d8c:	07448593          	addi	a1,s1,116
   10d90:	02d000ef          	jal	ra,115bc <_malloc_r>
   10d94:	00050413          	mv	s0,a0
   10d98:	02050063          	beqz	a0,10db8 <__sfmoreglue+0x50>
   10d9c:	00c50513          	addi	a0,a0,12
   10da0:	00042023          	sw	zero,0(s0)
   10da4:	01242223          	sw	s2,4(s0)
   10da8:	00a42423          	sw	a0,8(s0)
   10dac:	06848613          	addi	a2,s1,104
   10db0:	00000593          	li	a1,0
   10db4:	aa1ff0ef          	jal	ra,10854 <memset>
   10db8:	00c12083          	lw	ra,12(sp)
   10dbc:	00040513          	mv	a0,s0
   10dc0:	00812403          	lw	s0,8(sp)
   10dc4:	00412483          	lw	s1,4(sp)
   10dc8:	00012903          	lw	s2,0(sp)
   10dcc:	01010113          	addi	sp,sp,16
   10dd0:	00008067          	ret

00010dd4 <__sfp>:
   10dd4:	fe010113          	addi	sp,sp,-32
   10dd8:	01212823          	sw	s2,16(sp)
   10ddc:	0301a903          	lw	s2,48(gp) # 17b98 <_global_impure_ptr>
   10de0:	03892783          	lw	a5,56(s2)
   10de4:	01312623          	sw	s3,12(sp)
   10de8:	00112e23          	sw	ra,28(sp)
   10dec:	00812c23          	sw	s0,24(sp)
   10df0:	00912a23          	sw	s1,20(sp)
   10df4:	01412423          	sw	s4,8(sp)
   10df8:	00050993          	mv	s3,a0
   10dfc:	0a078a63          	beqz	a5,10eb0 <__sfp+0xdc>
   10e00:	2e090913          	addi	s2,s2,736
   10e04:	fff00493          	li	s1,-1
   10e08:	00400a13          	li	s4,4
   10e0c:	00492783          	lw	a5,4(s2)
   10e10:	00892403          	lw	s0,8(s2)
   10e14:	fff78793          	addi	a5,a5,-1
   10e18:	0007d863          	bgez	a5,10e28 <__sfp+0x54>
   10e1c:	0840006f          	j	10ea0 <__sfp+0xcc>
   10e20:	06840413          	addi	s0,s0,104
   10e24:	06978e63          	beq	a5,s1,10ea0 <__sfp+0xcc>
   10e28:	00c41703          	lh	a4,12(s0)
   10e2c:	fff78793          	addi	a5,a5,-1
   10e30:	fe0718e3          	bnez	a4,10e20 <__sfp+0x4c>
   10e34:	ffff07b7          	lui	a5,0xffff0
   10e38:	00178793          	addi	a5,a5,1 # ffff0001 <__BSS_END__+0xfffd83fd>
   10e3c:	06042223          	sw	zero,100(s0)
   10e40:	00042023          	sw	zero,0(s0)
   10e44:	00042223          	sw	zero,4(s0)
   10e48:	00042423          	sw	zero,8(s0)
   10e4c:	00f42623          	sw	a5,12(s0)
   10e50:	00042823          	sw	zero,16(s0)
   10e54:	00042a23          	sw	zero,20(s0)
   10e58:	00042c23          	sw	zero,24(s0)
   10e5c:	00800613          	li	a2,8
   10e60:	00000593          	li	a1,0
   10e64:	05c40513          	addi	a0,s0,92
   10e68:	9edff0ef          	jal	ra,10854 <memset>
   10e6c:	02042823          	sw	zero,48(s0)
   10e70:	02042a23          	sw	zero,52(s0)
   10e74:	04042223          	sw	zero,68(s0)
   10e78:	04042423          	sw	zero,72(s0)
   10e7c:	01c12083          	lw	ra,28(sp)
   10e80:	00040513          	mv	a0,s0
   10e84:	01812403          	lw	s0,24(sp)
   10e88:	01412483          	lw	s1,20(sp)
   10e8c:	01012903          	lw	s2,16(sp)
   10e90:	00c12983          	lw	s3,12(sp)
   10e94:	00812a03          	lw	s4,8(sp)
   10e98:	02010113          	addi	sp,sp,32
   10e9c:	00008067          	ret
   10ea0:	00092403          	lw	s0,0(s2)
   10ea4:	00040c63          	beqz	s0,10ebc <__sfp+0xe8>
   10ea8:	00040913          	mv	s2,s0
   10eac:	f61ff06f          	j	10e0c <__sfp+0x38>
   10eb0:	00090513          	mv	a0,s2
   10eb4:	d31ff0ef          	jal	ra,10be4 <__sinit.part.0>
   10eb8:	f49ff06f          	j	10e00 <__sfp+0x2c>
   10ebc:	1ac00593          	li	a1,428
   10ec0:	00098513          	mv	a0,s3
   10ec4:	6f8000ef          	jal	ra,115bc <_malloc_r>
   10ec8:	00050413          	mv	s0,a0
   10ecc:	02050663          	beqz	a0,10ef8 <__sfp+0x124>
   10ed0:	00c50513          	addi	a0,a0,12
   10ed4:	00042023          	sw	zero,0(s0)
   10ed8:	01442223          	sw	s4,4(s0)
   10edc:	00a42423          	sw	a0,8(s0)
   10ee0:	1a000613          	li	a2,416
   10ee4:	00000593          	li	a1,0
   10ee8:	96dff0ef          	jal	ra,10854 <memset>
   10eec:	00892023          	sw	s0,0(s2)
   10ef0:	00040913          	mv	s2,s0
   10ef4:	f19ff06f          	j	10e0c <__sfp+0x38>
   10ef8:	00092023          	sw	zero,0(s2)
   10efc:	00c00793          	li	a5,12
   10f00:	00f9a023          	sw	a5,0(s3)
   10f04:	f79ff06f          	j	10e7c <__sfp+0xa8>

00010f08 <_cleanup>:
   10f08:	00002597          	auipc	a1,0x2
   10f0c:	b2058593          	addi	a1,a1,-1248 # 12a28 <_fclose_r>
   10f10:	0301a503          	lw	a0,48(gp) # 17b98 <_global_impure_ptr>
   10f14:	5f40006f          	j	11508 <_fwalk_reent>

00010f18 <__sinit>:
   10f18:	03852783          	lw	a5,56(a0)
   10f1c:	00078463          	beqz	a5,10f24 <__sinit+0xc>
   10f20:	00008067          	ret
   10f24:	cc1ff06f          	j	10be4 <__sinit.part.0>

00010f28 <__sfp_lock_acquire>:
   10f28:	00008067          	ret

00010f2c <__sfp_lock_release>:
   10f2c:	00008067          	ret

00010f30 <__sinit_lock_acquire>:
   10f30:	00008067          	ret

00010f34 <__sinit_lock_release>:
   10f34:	00008067          	ret

00010f38 <__fp_lock_all>:
   10f38:	00000597          	auipc	a1,0x0
   10f3c:	c9058593          	addi	a1,a1,-880 # 10bc8 <__fp_lock>
   10f40:	0381a503          	lw	a0,56(gp) # 17ba0 <_impure_ptr>
   10f44:	5200006f          	j	11464 <_fwalk>

00010f48 <__fp_unlock_all>:
   10f48:	00000597          	auipc	a1,0x0
   10f4c:	c9458593          	addi	a1,a1,-876 # 10bdc <__fp_unlock>
   10f50:	0381a503          	lw	a0,56(gp) # 17ba0 <_impure_ptr>
   10f54:	5100006f          	j	11464 <_fwalk>

00010f58 <__libc_fini_array>:
   10f58:	ff010113          	addi	sp,sp,-16
   10f5c:	00812423          	sw	s0,8(sp)
   10f60:	00006797          	auipc	a5,0x6
   10f64:	40078793          	addi	a5,a5,1024 # 17360 <__do_global_dtors_aux_fini_array_entry>
   10f68:	00006417          	auipc	s0,0x6
   10f6c:	3fc40413          	addi	s0,s0,1020 # 17364 <__fini_array_end>
   10f70:	40f40433          	sub	s0,s0,a5
   10f74:	00912223          	sw	s1,4(sp)
   10f78:	00112623          	sw	ra,12(sp)
   10f7c:	40245493          	srai	s1,s0,0x2
   10f80:	02048063          	beqz	s1,10fa0 <__libc_fini_array+0x48>
   10f84:	ffc40413          	addi	s0,s0,-4
   10f88:	00f40433          	add	s0,s0,a5
   10f8c:	00042783          	lw	a5,0(s0)
   10f90:	fff48493          	addi	s1,s1,-1
   10f94:	ffc40413          	addi	s0,s0,-4
   10f98:	000780e7          	jalr	a5
   10f9c:	fe0498e3          	bnez	s1,10f8c <__libc_fini_array+0x34>
   10fa0:	00c12083          	lw	ra,12(sp)
   10fa4:	00812403          	lw	s0,8(sp)
   10fa8:	00412483          	lw	s1,4(sp)
   10fac:	01010113          	addi	sp,sp,16
   10fb0:	00008067          	ret

00010fb4 <__sfvwrite_r>:
   10fb4:	00862783          	lw	a5,8(a2)
   10fb8:	32078063          	beqz	a5,112d8 <__sfvwrite_r+0x324>
   10fbc:	00c5d683          	lhu	a3,12(a1)
   10fc0:	fd010113          	addi	sp,sp,-48
   10fc4:	02812423          	sw	s0,40(sp)
   10fc8:	01412c23          	sw	s4,24(sp)
   10fcc:	01712623          	sw	s7,12(sp)
   10fd0:	02112623          	sw	ra,44(sp)
   10fd4:	02912223          	sw	s1,36(sp)
   10fd8:	03212023          	sw	s2,32(sp)
   10fdc:	01312e23          	sw	s3,28(sp)
   10fe0:	01512a23          	sw	s5,20(sp)
   10fe4:	01612823          	sw	s6,16(sp)
   10fe8:	01812423          	sw	s8,8(sp)
   10fec:	01912223          	sw	s9,4(sp)
   10ff0:	01a12023          	sw	s10,0(sp)
   10ff4:	0086f793          	andi	a5,a3,8
   10ff8:	00060b93          	mv	s7,a2
   10ffc:	00050a13          	mv	s4,a0
   11000:	00058413          	mv	s0,a1
   11004:	08078663          	beqz	a5,11090 <__sfvwrite_r+0xdc>
   11008:	0105a783          	lw	a5,16(a1)
   1100c:	08078263          	beqz	a5,11090 <__sfvwrite_r+0xdc>
   11010:	0026f793          	andi	a5,a3,2
   11014:	000ba483          	lw	s1,0(s7)
   11018:	08078c63          	beqz	a5,110b0 <__sfvwrite_r+0xfc>
   1101c:	02442783          	lw	a5,36(s0)
   11020:	01c42583          	lw	a1,28(s0)
   11024:	80000ab7          	lui	s5,0x80000
   11028:	00000993          	li	s3,0
   1102c:	00000913          	li	s2,0
   11030:	c00aca93          	xori	s5,s5,-1024
   11034:	00098613          	mv	a2,s3
   11038:	000a0513          	mv	a0,s4
   1103c:	04090263          	beqz	s2,11080 <__sfvwrite_r+0xcc>
   11040:	00090693          	mv	a3,s2
   11044:	012af463          	bgeu	s5,s2,1104c <__sfvwrite_r+0x98>
   11048:	000a8693          	mv	a3,s5
   1104c:	000780e7          	jalr	a5
   11050:	26a05a63          	blez	a0,112c4 <__sfvwrite_r+0x310>
   11054:	008ba783          	lw	a5,8(s7)
   11058:	00a989b3          	add	s3,s3,a0
   1105c:	40a90933          	sub	s2,s2,a0
   11060:	40a787b3          	sub	a5,a5,a0
   11064:	00fba423          	sw	a5,8(s7)
   11068:	20078863          	beqz	a5,11278 <__sfvwrite_r+0x2c4>
   1106c:	02442783          	lw	a5,36(s0)
   11070:	01c42583          	lw	a1,28(s0)
   11074:	00098613          	mv	a2,s3
   11078:	000a0513          	mv	a0,s4
   1107c:	fc0912e3          	bnez	s2,11040 <__sfvwrite_r+0x8c>
   11080:	0004a983          	lw	s3,0(s1)
   11084:	0044a903          	lw	s2,4(s1)
   11088:	00848493          	addi	s1,s1,8
   1108c:	fa9ff06f          	j	11034 <__sfvwrite_r+0x80>
   11090:	00040593          	mv	a1,s0
   11094:	000a0513          	mv	a0,s4
   11098:	740010ef          	jal	ra,127d8 <__swsetup_r>
   1109c:	3c051063          	bnez	a0,1145c <__sfvwrite_r+0x4a8>
   110a0:	00c45683          	lhu	a3,12(s0)
   110a4:	000ba483          	lw	s1,0(s7)
   110a8:	0026f793          	andi	a5,a3,2
   110ac:	f60798e3          	bnez	a5,1101c <__sfvwrite_r+0x68>
   110b0:	0016f793          	andi	a5,a3,1
   110b4:	12079e63          	bnez	a5,111f0 <__sfvwrite_r+0x23c>
   110b8:	00042783          	lw	a5,0(s0)
   110bc:	00842703          	lw	a4,8(s0)
   110c0:	80000ab7          	lui	s5,0x80000
   110c4:	ffeacb13          	xori	s6,s5,-2
   110c8:	00000c13          	li	s8,0
   110cc:	00000993          	li	s3,0
   110d0:	fffaca93          	not	s5,s5
   110d4:	00078513          	mv	a0,a5
   110d8:	00070c93          	mv	s9,a4
   110dc:	10098263          	beqz	s3,111e0 <__sfvwrite_r+0x22c>
   110e0:	2006f613          	andi	a2,a3,512
   110e4:	24060e63          	beqz	a2,11340 <__sfvwrite_r+0x38c>
   110e8:	00070d13          	mv	s10,a4
   110ec:	2ee9e663          	bltu	s3,a4,113d8 <__sfvwrite_r+0x424>
   110f0:	4806f713          	andi	a4,a3,1152
   110f4:	08070a63          	beqz	a4,11188 <__sfvwrite_r+0x1d4>
   110f8:	01442603          	lw	a2,20(s0)
   110fc:	01042583          	lw	a1,16(s0)
   11100:	00161713          	slli	a4,a2,0x1
   11104:	00c70733          	add	a4,a4,a2
   11108:	40b78933          	sub	s2,a5,a1
   1110c:	01f75c93          	srli	s9,a4,0x1f
   11110:	00ec8cb3          	add	s9,s9,a4
   11114:	00190793          	addi	a5,s2,1
   11118:	401cdc93          	srai	s9,s9,0x1
   1111c:	013787b3          	add	a5,a5,s3
   11120:	000c8613          	mv	a2,s9
   11124:	00fcf663          	bgeu	s9,a5,11130 <__sfvwrite_r+0x17c>
   11128:	00078c93          	mv	s9,a5
   1112c:	00078613          	mv	a2,a5
   11130:	4006f693          	andi	a3,a3,1024
   11134:	2c068e63          	beqz	a3,11410 <__sfvwrite_r+0x45c>
   11138:	00060593          	mv	a1,a2
   1113c:	000a0513          	mv	a0,s4
   11140:	47c000ef          	jal	ra,115bc <_malloc_r>
   11144:	00050d13          	mv	s10,a0
   11148:	30050263          	beqz	a0,1144c <__sfvwrite_r+0x498>
   1114c:	01042583          	lw	a1,16(s0)
   11150:	00090613          	mv	a2,s2
   11154:	4d5000ef          	jal	ra,11e28 <memcpy>
   11158:	00c45783          	lhu	a5,12(s0)
   1115c:	b7f7f793          	andi	a5,a5,-1153
   11160:	0807e793          	ori	a5,a5,128
   11164:	00f41623          	sh	a5,12(s0)
   11168:	012d0533          	add	a0,s10,s2
   1116c:	412c87b3          	sub	a5,s9,s2
   11170:	01a42823          	sw	s10,16(s0)
   11174:	01942a23          	sw	s9,20(s0)
   11178:	00a42023          	sw	a0,0(s0)
   1117c:	00098c93          	mv	s9,s3
   11180:	00f42423          	sw	a5,8(s0)
   11184:	00098d13          	mv	s10,s3
   11188:	000d0613          	mv	a2,s10
   1118c:	000c0593          	mv	a1,s8
   11190:	5c1000ef          	jal	ra,11f50 <memmove>
   11194:	00842703          	lw	a4,8(s0)
   11198:	00042783          	lw	a5,0(s0)
   1119c:	00098913          	mv	s2,s3
   111a0:	41970733          	sub	a4,a4,s9
   111a4:	01a787b3          	add	a5,a5,s10
   111a8:	00e42423          	sw	a4,8(s0)
   111ac:	00f42023          	sw	a5,0(s0)
   111b0:	00000993          	li	s3,0
   111b4:	008ba783          	lw	a5,8(s7)
   111b8:	012c0c33          	add	s8,s8,s2
   111bc:	412787b3          	sub	a5,a5,s2
   111c0:	00fba423          	sw	a5,8(s7)
   111c4:	0a078a63          	beqz	a5,11278 <__sfvwrite_r+0x2c4>
   111c8:	00042783          	lw	a5,0(s0)
   111cc:	00842703          	lw	a4,8(s0)
   111d0:	00c45683          	lhu	a3,12(s0)
   111d4:	00078513          	mv	a0,a5
   111d8:	00070c93          	mv	s9,a4
   111dc:	f00992e3          	bnez	s3,110e0 <__sfvwrite_r+0x12c>
   111e0:	0004ac03          	lw	s8,0(s1)
   111e4:	0044a983          	lw	s3,4(s1)
   111e8:	00848493          	addi	s1,s1,8
   111ec:	ee9ff06f          	j	110d4 <__sfvwrite_r+0x120>
   111f0:	00000a93          	li	s5,0
   111f4:	00000513          	li	a0,0
   111f8:	00000c13          	li	s8,0
   111fc:	00000993          	li	s3,0
   11200:	0e098063          	beqz	s3,112e0 <__sfvwrite_r+0x32c>
   11204:	0e050863          	beqz	a0,112f4 <__sfvwrite_r+0x340>
   11208:	000a8793          	mv	a5,s5
   1120c:	00098b13          	mv	s6,s3
   11210:	0137f463          	bgeu	a5,s3,11218 <__sfvwrite_r+0x264>
   11214:	00078b13          	mv	s6,a5
   11218:	00042503          	lw	a0,0(s0)
   1121c:	01042783          	lw	a5,16(s0)
   11220:	00842903          	lw	s2,8(s0)
   11224:	01442683          	lw	a3,20(s0)
   11228:	00a7f663          	bgeu	a5,a0,11234 <__sfvwrite_r+0x280>
   1122c:	00d90933          	add	s2,s2,a3
   11230:	0f694263          	blt	s2,s6,11314 <__sfvwrite_r+0x360>
   11234:	1adb4863          	blt	s6,a3,113e4 <__sfvwrite_r+0x430>
   11238:	02442783          	lw	a5,36(s0)
   1123c:	01c42583          	lw	a1,28(s0)
   11240:	000c0613          	mv	a2,s8
   11244:	000a0513          	mv	a0,s4
   11248:	000780e7          	jalr	a5
   1124c:	00050913          	mv	s2,a0
   11250:	06a05a63          	blez	a0,112c4 <__sfvwrite_r+0x310>
   11254:	412a8ab3          	sub	s5,s5,s2
   11258:	00100513          	li	a0,1
   1125c:	040a8c63          	beqz	s5,112b4 <__sfvwrite_r+0x300>
   11260:	008ba783          	lw	a5,8(s7)
   11264:	012c0c33          	add	s8,s8,s2
   11268:	412989b3          	sub	s3,s3,s2
   1126c:	412787b3          	sub	a5,a5,s2
   11270:	00fba423          	sw	a5,8(s7)
   11274:	f80796e3          	bnez	a5,11200 <__sfvwrite_r+0x24c>
   11278:	00000513          	li	a0,0
   1127c:	02c12083          	lw	ra,44(sp)
   11280:	02812403          	lw	s0,40(sp)
   11284:	02412483          	lw	s1,36(sp)
   11288:	02012903          	lw	s2,32(sp)
   1128c:	01c12983          	lw	s3,28(sp)
   11290:	01812a03          	lw	s4,24(sp)
   11294:	01412a83          	lw	s5,20(sp)
   11298:	01012b03          	lw	s6,16(sp)
   1129c:	00c12b83          	lw	s7,12(sp)
   112a0:	00812c03          	lw	s8,8(sp)
   112a4:	00412c83          	lw	s9,4(sp)
   112a8:	00012d03          	lw	s10,0(sp)
   112ac:	03010113          	addi	sp,sp,48
   112b0:	00008067          	ret
   112b4:	00040593          	mv	a1,s0
   112b8:	000a0513          	mv	a0,s4
   112bc:	2ed010ef          	jal	ra,12da8 <_fflush_r>
   112c0:	fa0500e3          	beqz	a0,11260 <__sfvwrite_r+0x2ac>
   112c4:	00c41783          	lh	a5,12(s0)
   112c8:	0407e793          	ori	a5,a5,64
   112cc:	00f41623          	sh	a5,12(s0)
   112d0:	fff00513          	li	a0,-1
   112d4:	fa9ff06f          	j	1127c <__sfvwrite_r+0x2c8>
   112d8:	00000513          	li	a0,0
   112dc:	00008067          	ret
   112e0:	0044a983          	lw	s3,4(s1)
   112e4:	00048793          	mv	a5,s1
   112e8:	00848493          	addi	s1,s1,8
   112ec:	fe098ae3          	beqz	s3,112e0 <__sfvwrite_r+0x32c>
   112f0:	0007ac03          	lw	s8,0(a5)
   112f4:	00098613          	mv	a2,s3
   112f8:	00a00593          	li	a1,10
   112fc:	000c0513          	mv	a0,s8
   11300:	261000ef          	jal	ra,11d60 <memchr>
   11304:	12050e63          	beqz	a0,11440 <__sfvwrite_r+0x48c>
   11308:	00150513          	addi	a0,a0,1
   1130c:	41850ab3          	sub	s5,a0,s8
   11310:	ef9ff06f          	j	11208 <__sfvwrite_r+0x254>
   11314:	000c0593          	mv	a1,s8
   11318:	00090613          	mv	a2,s2
   1131c:	435000ef          	jal	ra,11f50 <memmove>
   11320:	00042783          	lw	a5,0(s0)
   11324:	00040593          	mv	a1,s0
   11328:	000a0513          	mv	a0,s4
   1132c:	012787b3          	add	a5,a5,s2
   11330:	00f42023          	sw	a5,0(s0)
   11334:	275010ef          	jal	ra,12da8 <_fflush_r>
   11338:	f0050ee3          	beqz	a0,11254 <__sfvwrite_r+0x2a0>
   1133c:	f89ff06f          	j	112c4 <__sfvwrite_r+0x310>
   11340:	01042683          	lw	a3,16(s0)
   11344:	04f6e263          	bltu	a3,a5,11388 <__sfvwrite_r+0x3d4>
   11348:	01442803          	lw	a6,20(s0)
   1134c:	0309ee63          	bltu	s3,a6,11388 <__sfvwrite_r+0x3d4>
   11350:	00098693          	mv	a3,s3
   11354:	013b7463          	bgeu	s6,s3,1135c <__sfvwrite_r+0x3a8>
   11358:	000a8693          	mv	a3,s5
   1135c:	0306c6b3          	div	a3,a3,a6
   11360:	02442783          	lw	a5,36(s0)
   11364:	01c42583          	lw	a1,28(s0)
   11368:	000c0613          	mv	a2,s8
   1136c:	000a0513          	mv	a0,s4
   11370:	030686b3          	mul	a3,a3,a6
   11374:	000780e7          	jalr	a5
   11378:	00050913          	mv	s2,a0
   1137c:	f4a054e3          	blez	a0,112c4 <__sfvwrite_r+0x310>
   11380:	412989b3          	sub	s3,s3,s2
   11384:	e31ff06f          	j	111b4 <__sfvwrite_r+0x200>
   11388:	00070913          	mv	s2,a4
   1138c:	00e9f463          	bgeu	s3,a4,11394 <__sfvwrite_r+0x3e0>
   11390:	00098913          	mv	s2,s3
   11394:	00078513          	mv	a0,a5
   11398:	00090613          	mv	a2,s2
   1139c:	000c0593          	mv	a1,s8
   113a0:	3b1000ef          	jal	ra,11f50 <memmove>
   113a4:	00842703          	lw	a4,8(s0)
   113a8:	00042783          	lw	a5,0(s0)
   113ac:	41270733          	sub	a4,a4,s2
   113b0:	012787b3          	add	a5,a5,s2
   113b4:	00e42423          	sw	a4,8(s0)
   113b8:	00f42023          	sw	a5,0(s0)
   113bc:	fc0712e3          	bnez	a4,11380 <__sfvwrite_r+0x3cc>
   113c0:	00040593          	mv	a1,s0
   113c4:	000a0513          	mv	a0,s4
   113c8:	1e1010ef          	jal	ra,12da8 <_fflush_r>
   113cc:	ee051ce3          	bnez	a0,112c4 <__sfvwrite_r+0x310>
   113d0:	412989b3          	sub	s3,s3,s2
   113d4:	de1ff06f          	j	111b4 <__sfvwrite_r+0x200>
   113d8:	00098c93          	mv	s9,s3
   113dc:	00098d13          	mv	s10,s3
   113e0:	da9ff06f          	j	11188 <__sfvwrite_r+0x1d4>
   113e4:	000b0613          	mv	a2,s6
   113e8:	000c0593          	mv	a1,s8
   113ec:	365000ef          	jal	ra,11f50 <memmove>
   113f0:	00842703          	lw	a4,8(s0)
   113f4:	00042783          	lw	a5,0(s0)
   113f8:	000b0913          	mv	s2,s6
   113fc:	41670733          	sub	a4,a4,s6
   11400:	016787b3          	add	a5,a5,s6
   11404:	00e42423          	sw	a4,8(s0)
   11408:	00f42023          	sw	a5,0(s0)
   1140c:	e49ff06f          	j	11254 <__sfvwrite_r+0x2a0>
   11410:	000a0513          	mv	a0,s4
   11414:	465000ef          	jal	ra,12078 <_realloc_r>
   11418:	00050d13          	mv	s10,a0
   1141c:	d40516e3          	bnez	a0,11168 <__sfvwrite_r+0x1b4>
   11420:	01042583          	lw	a1,16(s0)
   11424:	000a0513          	mv	a0,s4
   11428:	38d010ef          	jal	ra,12fb4 <_free_r>
   1142c:	00c41783          	lh	a5,12(s0)
   11430:	00c00713          	li	a4,12
   11434:	00ea2023          	sw	a4,0(s4)
   11438:	f7f7f793          	andi	a5,a5,-129
   1143c:	e8dff06f          	j	112c8 <__sfvwrite_r+0x314>
   11440:	00198793          	addi	a5,s3,1
   11444:	00078a93          	mv	s5,a5
   11448:	dc5ff06f          	j	1120c <__sfvwrite_r+0x258>
   1144c:	00c00713          	li	a4,12
   11450:	00c41783          	lh	a5,12(s0)
   11454:	00ea2023          	sw	a4,0(s4)
   11458:	e71ff06f          	j	112c8 <__sfvwrite_r+0x314>
   1145c:	fff00513          	li	a0,-1
   11460:	e1dff06f          	j	1127c <__sfvwrite_r+0x2c8>

00011464 <_fwalk>:
   11464:	fe010113          	addi	sp,sp,-32
   11468:	01212823          	sw	s2,16(sp)
   1146c:	01312623          	sw	s3,12(sp)
   11470:	01412423          	sw	s4,8(sp)
   11474:	01512223          	sw	s5,4(sp)
   11478:	01612023          	sw	s6,0(sp)
   1147c:	00112e23          	sw	ra,28(sp)
   11480:	00812c23          	sw	s0,24(sp)
   11484:	00912a23          	sw	s1,20(sp)
   11488:	00058b13          	mv	s6,a1
   1148c:	2e050a93          	addi	s5,a0,736
   11490:	00000a13          	li	s4,0
   11494:	00100993          	li	s3,1
   11498:	fff00913          	li	s2,-1
   1149c:	004aa483          	lw	s1,4(s5) # 80000004 <__BSS_END__+0x7ffe8400>
   114a0:	008aa403          	lw	s0,8(s5)
   114a4:	fff48493          	addi	s1,s1,-1
   114a8:	0204c663          	bltz	s1,114d4 <_fwalk+0x70>
   114ac:	00c45783          	lhu	a5,12(s0)
   114b0:	fff48493          	addi	s1,s1,-1
   114b4:	00f9fc63          	bgeu	s3,a5,114cc <_fwalk+0x68>
   114b8:	00e41783          	lh	a5,14(s0)
   114bc:	00040513          	mv	a0,s0
   114c0:	01278663          	beq	a5,s2,114cc <_fwalk+0x68>
   114c4:	000b00e7          	jalr	s6
   114c8:	00aa6a33          	or	s4,s4,a0
   114cc:	06840413          	addi	s0,s0,104
   114d0:	fd249ee3          	bne	s1,s2,114ac <_fwalk+0x48>
   114d4:	000aaa83          	lw	s5,0(s5)
   114d8:	fc0a92e3          	bnez	s5,1149c <_fwalk+0x38>
   114dc:	01c12083          	lw	ra,28(sp)
   114e0:	01812403          	lw	s0,24(sp)
   114e4:	01412483          	lw	s1,20(sp)
   114e8:	01012903          	lw	s2,16(sp)
   114ec:	00c12983          	lw	s3,12(sp)
   114f0:	00412a83          	lw	s5,4(sp)
   114f4:	00012b03          	lw	s6,0(sp)
   114f8:	000a0513          	mv	a0,s4
   114fc:	00812a03          	lw	s4,8(sp)
   11500:	02010113          	addi	sp,sp,32
   11504:	00008067          	ret

00011508 <_fwalk_reent>:
   11508:	fd010113          	addi	sp,sp,-48
   1150c:	03212023          	sw	s2,32(sp)
   11510:	01312e23          	sw	s3,28(sp)
   11514:	01412c23          	sw	s4,24(sp)
   11518:	01512a23          	sw	s5,20(sp)
   1151c:	01612823          	sw	s6,16(sp)
   11520:	01712623          	sw	s7,12(sp)
   11524:	02112623          	sw	ra,44(sp)
   11528:	02812423          	sw	s0,40(sp)
   1152c:	02912223          	sw	s1,36(sp)
   11530:	00050a93          	mv	s5,a0
   11534:	00058b93          	mv	s7,a1
   11538:	2e050b13          	addi	s6,a0,736
   1153c:	00000a13          	li	s4,0
   11540:	00100993          	li	s3,1
   11544:	fff00913          	li	s2,-1
   11548:	004b2483          	lw	s1,4(s6)
   1154c:	008b2403          	lw	s0,8(s6)
   11550:	fff48493          	addi	s1,s1,-1
   11554:	0204c863          	bltz	s1,11584 <_fwalk_reent+0x7c>
   11558:	00c45783          	lhu	a5,12(s0)
   1155c:	fff48493          	addi	s1,s1,-1
   11560:	00f9fe63          	bgeu	s3,a5,1157c <_fwalk_reent+0x74>
   11564:	00e41783          	lh	a5,14(s0)
   11568:	00040593          	mv	a1,s0
   1156c:	000a8513          	mv	a0,s5
   11570:	01278663          	beq	a5,s2,1157c <_fwalk_reent+0x74>
   11574:	000b80e7          	jalr	s7
   11578:	00aa6a33          	or	s4,s4,a0
   1157c:	06840413          	addi	s0,s0,104
   11580:	fd249ce3          	bne	s1,s2,11558 <_fwalk_reent+0x50>
   11584:	000b2b03          	lw	s6,0(s6)
   11588:	fc0b10e3          	bnez	s6,11548 <_fwalk_reent+0x40>
   1158c:	02c12083          	lw	ra,44(sp)
   11590:	02812403          	lw	s0,40(sp)
   11594:	02412483          	lw	s1,36(sp)
   11598:	02012903          	lw	s2,32(sp)
   1159c:	01c12983          	lw	s3,28(sp)
   115a0:	01412a83          	lw	s5,20(sp)
   115a4:	01012b03          	lw	s6,16(sp)
   115a8:	00c12b83          	lw	s7,12(sp)
   115ac:	000a0513          	mv	a0,s4
   115b0:	01812a03          	lw	s4,24(sp)
   115b4:	03010113          	addi	sp,sp,48
   115b8:	00008067          	ret

000115bc <_malloc_r>:
   115bc:	fd010113          	addi	sp,sp,-48
   115c0:	03212023          	sw	s2,32(sp)
   115c4:	02112623          	sw	ra,44(sp)
   115c8:	02812423          	sw	s0,40(sp)
   115cc:	02912223          	sw	s1,36(sp)
   115d0:	01312e23          	sw	s3,28(sp)
   115d4:	01412c23          	sw	s4,24(sp)
   115d8:	01512a23          	sw	s5,20(sp)
   115dc:	01612823          	sw	s6,16(sp)
   115e0:	01712623          	sw	s7,12(sp)
   115e4:	01812423          	sw	s8,8(sp)
   115e8:	01912223          	sw	s9,4(sp)
   115ec:	00b58793          	addi	a5,a1,11
   115f0:	01600713          	li	a4,22
   115f4:	00050913          	mv	s2,a0
   115f8:	06f76463          	bltu	a4,a5,11660 <_malloc_r+0xa4>
   115fc:	01000793          	li	a5,16
   11600:	1eb7e263          	bltu	a5,a1,117e4 <_malloc_r+0x228>
   11604:	26d000ef          	jal	ra,12070 <__malloc_lock>
   11608:	01000493          	li	s1,16
   1160c:	01800793          	li	a5,24
   11610:	00200613          	li	a2,2
   11614:	c2818993          	addi	s3,gp,-984 # 17790 <__malloc_av_>
   11618:	00f987b3          	add	a5,s3,a5
   1161c:	0047a403          	lw	s0,4(a5)
   11620:	ff878713          	addi	a4,a5,-8
   11624:	20e40863          	beq	s0,a4,11834 <_malloc_r+0x278>
   11628:	00442783          	lw	a5,4(s0)
   1162c:	00c42683          	lw	a3,12(s0)
   11630:	00842603          	lw	a2,8(s0)
   11634:	ffc7f793          	andi	a5,a5,-4
   11638:	00f407b3          	add	a5,s0,a5
   1163c:	0047a703          	lw	a4,4(a5)
   11640:	00d62623          	sw	a3,12(a2)
   11644:	00c6a423          	sw	a2,8(a3)
   11648:	00176713          	ori	a4,a4,1
   1164c:	00090513          	mv	a0,s2
   11650:	00e7a223          	sw	a4,4(a5)
   11654:	221000ef          	jal	ra,12074 <__malloc_unlock>
   11658:	00840513          	addi	a0,s0,8
   1165c:	1940006f          	j	117f0 <_malloc_r+0x234>
   11660:	ff87f493          	andi	s1,a5,-8
   11664:	1807c063          	bltz	a5,117e4 <_malloc_r+0x228>
   11668:	16b4ee63          	bltu	s1,a1,117e4 <_malloc_r+0x228>
   1166c:	205000ef          	jal	ra,12070 <__malloc_lock>
   11670:	1f700793          	li	a5,503
   11674:	4697f063          	bgeu	a5,s1,11ad4 <_malloc_r+0x518>
   11678:	0094d793          	srli	a5,s1,0x9
   1167c:	1a078463          	beqz	a5,11824 <_malloc_r+0x268>
   11680:	00400713          	li	a4,4
   11684:	3cf76663          	bltu	a4,a5,11a50 <_malloc_r+0x494>
   11688:	0064d793          	srli	a5,s1,0x6
   1168c:	03978613          	addi	a2,a5,57
   11690:	03878513          	addi	a0,a5,56
   11694:	00361693          	slli	a3,a2,0x3
   11698:	c2818993          	addi	s3,gp,-984 # 17790 <__malloc_av_>
   1169c:	00d986b3          	add	a3,s3,a3
   116a0:	0046a403          	lw	s0,4(a3)
   116a4:	ff868693          	addi	a3,a3,-8
   116a8:	02868663          	beq	a3,s0,116d4 <_malloc_r+0x118>
   116ac:	00f00593          	li	a1,15
   116b0:	0100006f          	j	116c0 <_malloc_r+0x104>
   116b4:	32075863          	bgez	a4,119e4 <_malloc_r+0x428>
   116b8:	00c42403          	lw	s0,12(s0)
   116bc:	00868c63          	beq	a3,s0,116d4 <_malloc_r+0x118>
   116c0:	00442783          	lw	a5,4(s0)
   116c4:	ffc7f793          	andi	a5,a5,-4
   116c8:	40978733          	sub	a4,a5,s1
   116cc:	fee5d4e3          	bge	a1,a4,116b4 <_malloc_r+0xf8>
   116d0:	00050613          	mv	a2,a0
   116d4:	0109a403          	lw	s0,16(s3)
   116d8:	c3018893          	addi	a7,gp,-976 # 17798 <__malloc_av_+0x8>
   116dc:	17140863          	beq	s0,a7,1184c <_malloc_r+0x290>
   116e0:	00442583          	lw	a1,4(s0)
   116e4:	00f00713          	li	a4,15
   116e8:	ffc5f593          	andi	a1,a1,-4
   116ec:	409587b3          	sub	a5,a1,s1
   116f0:	40f74863          	blt	a4,a5,11b00 <_malloc_r+0x544>
   116f4:	0119aa23          	sw	a7,20(s3)
   116f8:	0119a823          	sw	a7,16(s3)
   116fc:	3e07d263          	bgez	a5,11ae0 <_malloc_r+0x524>
   11700:	1ff00793          	li	a5,511
   11704:	2eb7e663          	bltu	a5,a1,119f0 <_malloc_r+0x434>
   11708:	ff85f793          	andi	a5,a1,-8
   1170c:	00878793          	addi	a5,a5,8
   11710:	0049a503          	lw	a0,4(s3)
   11714:	00f987b3          	add	a5,s3,a5
   11718:	0007a683          	lw	a3,0(a5)
   1171c:	0055d593          	srli	a1,a1,0x5
   11720:	00100713          	li	a4,1
   11724:	00b71733          	sll	a4,a4,a1
   11728:	00a76733          	or	a4,a4,a0
   1172c:	ff878593          	addi	a1,a5,-8
   11730:	00b42623          	sw	a1,12(s0)
   11734:	00d42423          	sw	a3,8(s0)
   11738:	00e9a223          	sw	a4,4(s3)
   1173c:	0087a023          	sw	s0,0(a5)
   11740:	0086a623          	sw	s0,12(a3)
   11744:	40265793          	srai	a5,a2,0x2
   11748:	00100593          	li	a1,1
   1174c:	00f595b3          	sll	a1,a1,a5
   11750:	10b76863          	bltu	a4,a1,11860 <_malloc_r+0x2a4>
   11754:	00e5f7b3          	and	a5,a1,a4
   11758:	02079463          	bnez	a5,11780 <_malloc_r+0x1c4>
   1175c:	00159593          	slli	a1,a1,0x1
   11760:	ffc67613          	andi	a2,a2,-4
   11764:	00e5f7b3          	and	a5,a1,a4
   11768:	00460613          	addi	a2,a2,4
   1176c:	00079a63          	bnez	a5,11780 <_malloc_r+0x1c4>
   11770:	00159593          	slli	a1,a1,0x1
   11774:	00e5f7b3          	and	a5,a1,a4
   11778:	00460613          	addi	a2,a2,4
   1177c:	fe078ae3          	beqz	a5,11770 <_malloc_r+0x1b4>
   11780:	00f00813          	li	a6,15
   11784:	00361313          	slli	t1,a2,0x3
   11788:	00698333          	add	t1,s3,t1
   1178c:	00030513          	mv	a0,t1
   11790:	00c52783          	lw	a5,12(a0)
   11794:	00060e13          	mv	t3,a2
   11798:	2cf50e63          	beq	a0,a5,11a74 <_malloc_r+0x4b8>
   1179c:	0047a703          	lw	a4,4(a5)
   117a0:	00078413          	mv	s0,a5
   117a4:	00c7a783          	lw	a5,12(a5)
   117a8:	ffc77713          	andi	a4,a4,-4
   117ac:	409706b3          	sub	a3,a4,s1
   117b0:	2cd84e63          	blt	a6,a3,11a8c <_malloc_r+0x4d0>
   117b4:	fe06c2e3          	bltz	a3,11798 <_malloc_r+0x1dc>
   117b8:	00e40733          	add	a4,s0,a4
   117bc:	00472683          	lw	a3,4(a4)
   117c0:	00842603          	lw	a2,8(s0)
   117c4:	00090513          	mv	a0,s2
   117c8:	0016e693          	ori	a3,a3,1
   117cc:	00d72223          	sw	a3,4(a4)
   117d0:	00f62623          	sw	a5,12(a2)
   117d4:	00c7a423          	sw	a2,8(a5)
   117d8:	09d000ef          	jal	ra,12074 <__malloc_unlock>
   117dc:	00840513          	addi	a0,s0,8
   117e0:	0100006f          	j	117f0 <_malloc_r+0x234>
   117e4:	00c00793          	li	a5,12
   117e8:	00f92023          	sw	a5,0(s2)
   117ec:	00000513          	li	a0,0
   117f0:	02c12083          	lw	ra,44(sp)
   117f4:	02812403          	lw	s0,40(sp)
   117f8:	02412483          	lw	s1,36(sp)
   117fc:	02012903          	lw	s2,32(sp)
   11800:	01c12983          	lw	s3,28(sp)
   11804:	01812a03          	lw	s4,24(sp)
   11808:	01412a83          	lw	s5,20(sp)
   1180c:	01012b03          	lw	s6,16(sp)
   11810:	00c12b83          	lw	s7,12(sp)
   11814:	00812c03          	lw	s8,8(sp)
   11818:	00412c83          	lw	s9,4(sp)
   1181c:	03010113          	addi	sp,sp,48
   11820:	00008067          	ret
   11824:	20000693          	li	a3,512
   11828:	04000613          	li	a2,64
   1182c:	03f00513          	li	a0,63
   11830:	e69ff06f          	j	11698 <_malloc_r+0xdc>
   11834:	00c7a403          	lw	s0,12(a5)
   11838:	00260613          	addi	a2,a2,2
   1183c:	de8796e3          	bne	a5,s0,11628 <_malloc_r+0x6c>
   11840:	0109a403          	lw	s0,16(s3)
   11844:	c3018893          	addi	a7,gp,-976 # 17798 <__malloc_av_+0x8>
   11848:	e9141ce3          	bne	s0,a7,116e0 <_malloc_r+0x124>
   1184c:	0049a703          	lw	a4,4(s3)
   11850:	40265793          	srai	a5,a2,0x2
   11854:	00100593          	li	a1,1
   11858:	00f595b3          	sll	a1,a1,a5
   1185c:	eeb77ce3          	bgeu	a4,a1,11754 <_malloc_r+0x198>
   11860:	0089a403          	lw	s0,8(s3)
   11864:	00442b03          	lw	s6,4(s0)
   11868:	ffcb7b13          	andi	s6,s6,-4
   1186c:	009b6863          	bltu	s6,s1,1187c <_malloc_r+0x2c0>
   11870:	409b07b3          	sub	a5,s6,s1
   11874:	00f00713          	li	a4,15
   11878:	14f74263          	blt	a4,a5,119bc <_malloc_r+0x400>
   1187c:	03c18c93          	addi	s9,gp,60 # 17ba4 <__malloc_sbrk_base>
   11880:	000ca703          	lw	a4,0(s9)
   11884:	04c1aa83          	lw	s5,76(gp) # 17bb4 <__malloc_top_pad>
   11888:	fff00793          	li	a5,-1
   1188c:	01640a33          	add	s4,s0,s6
   11890:	01548ab3          	add	s5,s1,s5
   11894:	34f70863          	beq	a4,a5,11be4 <_malloc_r+0x628>
   11898:	000017b7          	lui	a5,0x1
   1189c:	00f78793          	addi	a5,a5,15 # 100f <main-0xf065>
   118a0:	00fa8ab3          	add	s5,s5,a5
   118a4:	fffff7b7          	lui	a5,0xfffff
   118a8:	00fafab3          	and	s5,s5,a5
   118ac:	000a8593          	mv	a1,s5
   118b0:	00090513          	mv	a0,s2
   118b4:	51d000ef          	jal	ra,125d0 <_sbrk_r>
   118b8:	fff00793          	li	a5,-1
   118bc:	00050b93          	mv	s7,a0
   118c0:	28f50a63          	beq	a0,a5,11b54 <_malloc_r+0x598>
   118c4:	29456663          	bltu	a0,s4,11b50 <_malloc_r+0x594>
   118c8:	07418c13          	addi	s8,gp,116 # 17bdc <__malloc_current_mallinfo>
   118cc:	000c2583          	lw	a1,0(s8)
   118d0:	00ba85b3          	add	a1,s5,a1
   118d4:	00bc2023          	sw	a1,0(s8)
   118d8:	00058793          	mv	a5,a1
   118dc:	3aaa0263          	beq	s4,a0,11c80 <_malloc_r+0x6c4>
   118e0:	000ca683          	lw	a3,0(s9)
   118e4:	fff00713          	li	a4,-1
   118e8:	3ae68a63          	beq	a3,a4,11c9c <_malloc_r+0x6e0>
   118ec:	414b8a33          	sub	s4,s7,s4
   118f0:	00fa07b3          	add	a5,s4,a5
   118f4:	00fc2023          	sw	a5,0(s8)
   118f8:	007bfc93          	andi	s9,s7,7
   118fc:	300c8663          	beqz	s9,11c08 <_malloc_r+0x64c>
   11900:	000017b7          	lui	a5,0x1
   11904:	419b8bb3          	sub	s7,s7,s9
   11908:	00878593          	addi	a1,a5,8 # 1008 <main-0xf06c>
   1190c:	008b8b93          	addi	s7,s7,8
   11910:	419585b3          	sub	a1,a1,s9
   11914:	015b8ab3          	add	s5,s7,s5
   11918:	fff78793          	addi	a5,a5,-1
   1191c:	415585b3          	sub	a1,a1,s5
   11920:	00f5fa33          	and	s4,a1,a5
   11924:	000a0593          	mv	a1,s4
   11928:	00090513          	mv	a0,s2
   1192c:	4a5000ef          	jal	ra,125d0 <_sbrk_r>
   11930:	fff00793          	li	a5,-1
   11934:	3af50e63          	beq	a0,a5,11cf0 <_malloc_r+0x734>
   11938:	41750533          	sub	a0,a0,s7
   1193c:	01450ab3          	add	s5,a0,s4
   11940:	000c2783          	lw	a5,0(s8)
   11944:	0179a423          	sw	s7,8(s3)
   11948:	001aea93          	ori	s5,s5,1
   1194c:	00fa05b3          	add	a1,s4,a5
   11950:	00bc2023          	sw	a1,0(s8)
   11954:	015ba223          	sw	s5,4(s7)
   11958:	35340663          	beq	s0,s3,11ca4 <_malloc_r+0x6e8>
   1195c:	00f00693          	li	a3,15
   11960:	3566f663          	bgeu	a3,s6,11cac <_malloc_r+0x6f0>
   11964:	00442703          	lw	a4,4(s0)
   11968:	ff4b0793          	addi	a5,s6,-12
   1196c:	ff87f793          	andi	a5,a5,-8
   11970:	00177713          	andi	a4,a4,1
   11974:	00f76733          	or	a4,a4,a5
   11978:	00e42223          	sw	a4,4(s0)
   1197c:	00500613          	li	a2,5
   11980:	00f40733          	add	a4,s0,a5
   11984:	00c72223          	sw	a2,4(a4)
   11988:	00c72423          	sw	a2,8(a4)
   1198c:	36f6ec63          	bltu	a3,a5,11d04 <_malloc_r+0x748>
   11990:	004baa83          	lw	s5,4(s7)
   11994:	000b8413          	mv	s0,s7
   11998:	04818793          	addi	a5,gp,72 # 17bb0 <__malloc_max_sbrked_mem>
   1199c:	0007a703          	lw	a4,0(a5)
   119a0:	00b77463          	bgeu	a4,a1,119a8 <_malloc_r+0x3ec>
   119a4:	00b7a023          	sw	a1,0(a5)
   119a8:	04418793          	addi	a5,gp,68 # 17bac <__malloc_max_total_mem>
   119ac:	0007a703          	lw	a4,0(a5)
   119b0:	1ab77663          	bgeu	a4,a1,11b5c <_malloc_r+0x5a0>
   119b4:	00b7a023          	sw	a1,0(a5)
   119b8:	1a40006f          	j	11b5c <_malloc_r+0x5a0>
   119bc:	0014e713          	ori	a4,s1,1
   119c0:	00e42223          	sw	a4,4(s0)
   119c4:	009404b3          	add	s1,s0,s1
   119c8:	0099a423          	sw	s1,8(s3)
   119cc:	0017e793          	ori	a5,a5,1
   119d0:	00090513          	mv	a0,s2
   119d4:	00f4a223          	sw	a5,4(s1)
   119d8:	69c000ef          	jal	ra,12074 <__malloc_unlock>
   119dc:	00840513          	addi	a0,s0,8
   119e0:	e11ff06f          	j	117f0 <_malloc_r+0x234>
   119e4:	00c42683          	lw	a3,12(s0)
   119e8:	00842603          	lw	a2,8(s0)
   119ec:	c4dff06f          	j	11638 <_malloc_r+0x7c>
   119f0:	0095d793          	srli	a5,a1,0x9
   119f4:	00400713          	li	a4,4
   119f8:	14f77263          	bgeu	a4,a5,11b3c <_malloc_r+0x580>
   119fc:	01400713          	li	a4,20
   11a00:	22f76a63          	bltu	a4,a5,11c34 <_malloc_r+0x678>
   11a04:	05c78693          	addi	a3,a5,92
   11a08:	05b78713          	addi	a4,a5,91
   11a0c:	00369693          	slli	a3,a3,0x3
   11a10:	00d986b3          	add	a3,s3,a3
   11a14:	0006a783          	lw	a5,0(a3)
   11a18:	ff868693          	addi	a3,a3,-8
   11a1c:	1cf68863          	beq	a3,a5,11bec <_malloc_r+0x630>
   11a20:	0047a703          	lw	a4,4(a5)
   11a24:	ffc77713          	andi	a4,a4,-4
   11a28:	00e5f663          	bgeu	a1,a4,11a34 <_malloc_r+0x478>
   11a2c:	0087a783          	lw	a5,8(a5)
   11a30:	fef698e3          	bne	a3,a5,11a20 <_malloc_r+0x464>
   11a34:	00c7a683          	lw	a3,12(a5)
   11a38:	0049a703          	lw	a4,4(s3)
   11a3c:	00d42623          	sw	a3,12(s0)
   11a40:	00f42423          	sw	a5,8(s0)
   11a44:	0086a423          	sw	s0,8(a3)
   11a48:	0087a623          	sw	s0,12(a5)
   11a4c:	cf9ff06f          	j	11744 <_malloc_r+0x188>
   11a50:	01400713          	li	a4,20
   11a54:	12f77663          	bgeu	a4,a5,11b80 <_malloc_r+0x5c4>
   11a58:	05400713          	li	a4,84
   11a5c:	1ef76a63          	bltu	a4,a5,11c50 <_malloc_r+0x694>
   11a60:	00c4d793          	srli	a5,s1,0xc
   11a64:	06f78613          	addi	a2,a5,111
   11a68:	06e78513          	addi	a0,a5,110
   11a6c:	00361693          	slli	a3,a2,0x3
   11a70:	c29ff06f          	j	11698 <_malloc_r+0xdc>
   11a74:	001e0e13          	addi	t3,t3,1
   11a78:	003e7793          	andi	a5,t3,3
   11a7c:	00850513          	addi	a0,a0,8
   11a80:	10078e63          	beqz	a5,11b9c <_malloc_r+0x5e0>
   11a84:	00c52783          	lw	a5,12(a0)
   11a88:	d11ff06f          	j	11798 <_malloc_r+0x1dc>
   11a8c:	00842603          	lw	a2,8(s0)
   11a90:	0014e593          	ori	a1,s1,1
   11a94:	00b42223          	sw	a1,4(s0)
   11a98:	00f62623          	sw	a5,12(a2)
   11a9c:	00c7a423          	sw	a2,8(a5)
   11aa0:	009404b3          	add	s1,s0,s1
   11aa4:	0099aa23          	sw	s1,20(s3)
   11aa8:	0099a823          	sw	s1,16(s3)
   11aac:	0016e793          	ori	a5,a3,1
   11ab0:	0114a623          	sw	a7,12(s1)
   11ab4:	0114a423          	sw	a7,8(s1)
   11ab8:	00f4a223          	sw	a5,4(s1)
   11abc:	00e40733          	add	a4,s0,a4
   11ac0:	00090513          	mv	a0,s2
   11ac4:	00d72023          	sw	a3,0(a4)
   11ac8:	5ac000ef          	jal	ra,12074 <__malloc_unlock>
   11acc:	00840513          	addi	a0,s0,8
   11ad0:	d21ff06f          	j	117f0 <_malloc_r+0x234>
   11ad4:	0034d613          	srli	a2,s1,0x3
   11ad8:	00848793          	addi	a5,s1,8
   11adc:	b39ff06f          	j	11614 <_malloc_r+0x58>
   11ae0:	00b405b3          	add	a1,s0,a1
   11ae4:	0045a783          	lw	a5,4(a1)
   11ae8:	00090513          	mv	a0,s2
   11aec:	0017e793          	ori	a5,a5,1
   11af0:	00f5a223          	sw	a5,4(a1)
   11af4:	580000ef          	jal	ra,12074 <__malloc_unlock>
   11af8:	00840513          	addi	a0,s0,8
   11afc:	cf5ff06f          	j	117f0 <_malloc_r+0x234>
   11b00:	0014e713          	ori	a4,s1,1
   11b04:	00e42223          	sw	a4,4(s0)
   11b08:	009404b3          	add	s1,s0,s1
   11b0c:	0099aa23          	sw	s1,20(s3)
   11b10:	0099a823          	sw	s1,16(s3)
   11b14:	0017e713          	ori	a4,a5,1
   11b18:	0114a623          	sw	a7,12(s1)
   11b1c:	0114a423          	sw	a7,8(s1)
   11b20:	00e4a223          	sw	a4,4(s1)
   11b24:	00b405b3          	add	a1,s0,a1
   11b28:	00090513          	mv	a0,s2
   11b2c:	00f5a023          	sw	a5,0(a1)
   11b30:	544000ef          	jal	ra,12074 <__malloc_unlock>
   11b34:	00840513          	addi	a0,s0,8
   11b38:	cb9ff06f          	j	117f0 <_malloc_r+0x234>
   11b3c:	0065d793          	srli	a5,a1,0x6
   11b40:	03978693          	addi	a3,a5,57
   11b44:	03878713          	addi	a4,a5,56
   11b48:	00369693          	slli	a3,a3,0x3
   11b4c:	ec5ff06f          	j	11a10 <_malloc_r+0x454>
   11b50:	11340e63          	beq	s0,s3,11c6c <_malloc_r+0x6b0>
   11b54:	0089a403          	lw	s0,8(s3)
   11b58:	00442a83          	lw	s5,4(s0)
   11b5c:	ffcafa93          	andi	s5,s5,-4
   11b60:	409a87b3          	sub	a5,s5,s1
   11b64:	009ae663          	bltu	s5,s1,11b70 <_malloc_r+0x5b4>
   11b68:	00f00713          	li	a4,15
   11b6c:	e4f748e3          	blt	a4,a5,119bc <_malloc_r+0x400>
   11b70:	00090513          	mv	a0,s2
   11b74:	500000ef          	jal	ra,12074 <__malloc_unlock>
   11b78:	00000513          	li	a0,0
   11b7c:	c75ff06f          	j	117f0 <_malloc_r+0x234>
   11b80:	05c78613          	addi	a2,a5,92
   11b84:	05b78513          	addi	a0,a5,91
   11b88:	00361693          	slli	a3,a2,0x3
   11b8c:	b0dff06f          	j	11698 <_malloc_r+0xdc>
   11b90:	00832783          	lw	a5,8(t1) # 101ac <frame_dummy+0x1c>
   11b94:	fff60613          	addi	a2,a2,-1
   11b98:	1c679063          	bne	a5,t1,11d58 <_malloc_r+0x79c>
   11b9c:	00367793          	andi	a5,a2,3
   11ba0:	ff830313          	addi	t1,t1,-8
   11ba4:	fe0796e3          	bnez	a5,11b90 <_malloc_r+0x5d4>
   11ba8:	0049a703          	lw	a4,4(s3)
   11bac:	fff5c793          	not	a5,a1
   11bb0:	00e7f7b3          	and	a5,a5,a4
   11bb4:	00f9a223          	sw	a5,4(s3)
   11bb8:	00159593          	slli	a1,a1,0x1
   11bbc:	cab7e2e3          	bltu	a5,a1,11860 <_malloc_r+0x2a4>
   11bc0:	ca0580e3          	beqz	a1,11860 <_malloc_r+0x2a4>
   11bc4:	00f5f733          	and	a4,a1,a5
   11bc8:	00071a63          	bnez	a4,11bdc <_malloc_r+0x620>
   11bcc:	00159593          	slli	a1,a1,0x1
   11bd0:	00f5f733          	and	a4,a1,a5
   11bd4:	004e0e13          	addi	t3,t3,4
   11bd8:	fe070ae3          	beqz	a4,11bcc <_malloc_r+0x610>
   11bdc:	000e0613          	mv	a2,t3
   11be0:	ba5ff06f          	j	11784 <_malloc_r+0x1c8>
   11be4:	010a8a93          	addi	s5,s5,16
   11be8:	cc5ff06f          	j	118ac <_malloc_r+0x2f0>
   11bec:	0049a503          	lw	a0,4(s3)
   11bf0:	40275593          	srai	a1,a4,0x2
   11bf4:	00100713          	li	a4,1
   11bf8:	00b71733          	sll	a4,a4,a1
   11bfc:	00a76733          	or	a4,a4,a0
   11c00:	00e9a223          	sw	a4,4(s3)
   11c04:	e39ff06f          	j	11a3c <_malloc_r+0x480>
   11c08:	015b85b3          	add	a1,s7,s5
   11c0c:	40b005b3          	neg	a1,a1
   11c10:	01459593          	slli	a1,a1,0x14
   11c14:	0145da13          	srli	s4,a1,0x14
   11c18:	000a0593          	mv	a1,s4
   11c1c:	00090513          	mv	a0,s2
   11c20:	1b1000ef          	jal	ra,125d0 <_sbrk_r>
   11c24:	fff00793          	li	a5,-1
   11c28:	d0f518e3          	bne	a0,a5,11938 <_malloc_r+0x37c>
   11c2c:	00000a13          	li	s4,0
   11c30:	d11ff06f          	j	11940 <_malloc_r+0x384>
   11c34:	05400713          	li	a4,84
   11c38:	08f76063          	bltu	a4,a5,11cb8 <_malloc_r+0x6fc>
   11c3c:	00c5d793          	srli	a5,a1,0xc
   11c40:	06f78693          	addi	a3,a5,111
   11c44:	06e78713          	addi	a4,a5,110
   11c48:	00369693          	slli	a3,a3,0x3
   11c4c:	dc5ff06f          	j	11a10 <_malloc_r+0x454>
   11c50:	15400713          	li	a4,340
   11c54:	08f76063          	bltu	a4,a5,11cd4 <_malloc_r+0x718>
   11c58:	00f4d793          	srli	a5,s1,0xf
   11c5c:	07878613          	addi	a2,a5,120
   11c60:	07778513          	addi	a0,a5,119
   11c64:	00361693          	slli	a3,a2,0x3
   11c68:	a31ff06f          	j	11698 <_malloc_r+0xdc>
   11c6c:	07418c13          	addi	s8,gp,116 # 17bdc <__malloc_current_mallinfo>
   11c70:	000c2783          	lw	a5,0(s8)
   11c74:	00fa87b3          	add	a5,s5,a5
   11c78:	00fc2023          	sw	a5,0(s8)
   11c7c:	c65ff06f          	j	118e0 <_malloc_r+0x324>
   11c80:	014a1713          	slli	a4,s4,0x14
   11c84:	c4071ee3          	bnez	a4,118e0 <_malloc_r+0x324>
   11c88:	0089a403          	lw	s0,8(s3)
   11c8c:	015b0ab3          	add	s5,s6,s5
   11c90:	001aea93          	ori	s5,s5,1
   11c94:	01542223          	sw	s5,4(s0)
   11c98:	d01ff06f          	j	11998 <_malloc_r+0x3dc>
   11c9c:	017ca023          	sw	s7,0(s9)
   11ca0:	c59ff06f          	j	118f8 <_malloc_r+0x33c>
   11ca4:	000b8413          	mv	s0,s7
   11ca8:	cf1ff06f          	j	11998 <_malloc_r+0x3dc>
   11cac:	00100793          	li	a5,1
   11cb0:	00fba223          	sw	a5,4(s7)
   11cb4:	ebdff06f          	j	11b70 <_malloc_r+0x5b4>
   11cb8:	15400713          	li	a4,340
   11cbc:	06f76263          	bltu	a4,a5,11d20 <_malloc_r+0x764>
   11cc0:	00f5d793          	srli	a5,a1,0xf
   11cc4:	07878693          	addi	a3,a5,120
   11cc8:	07778713          	addi	a4,a5,119
   11ccc:	00369693          	slli	a3,a3,0x3
   11cd0:	d41ff06f          	j	11a10 <_malloc_r+0x454>
   11cd4:	55400713          	li	a4,1364
   11cd8:	06f76263          	bltu	a4,a5,11d3c <_malloc_r+0x780>
   11cdc:	0124d793          	srli	a5,s1,0x12
   11ce0:	07d78613          	addi	a2,a5,125
   11ce4:	07c78513          	addi	a0,a5,124
   11ce8:	00361693          	slli	a3,a2,0x3
   11cec:	9adff06f          	j	11698 <_malloc_r+0xdc>
   11cf0:	ff8c8c93          	addi	s9,s9,-8
   11cf4:	019a8ab3          	add	s5,s5,s9
   11cf8:	417a8ab3          	sub	s5,s5,s7
   11cfc:	00000a13          	li	s4,0
   11d00:	c41ff06f          	j	11940 <_malloc_r+0x384>
   11d04:	00840593          	addi	a1,s0,8
   11d08:	00090513          	mv	a0,s2
   11d0c:	2a8010ef          	jal	ra,12fb4 <_free_r>
   11d10:	0089a403          	lw	s0,8(s3)
   11d14:	000c2583          	lw	a1,0(s8)
   11d18:	00442a83          	lw	s5,4(s0)
   11d1c:	c7dff06f          	j	11998 <_malloc_r+0x3dc>
   11d20:	55400713          	li	a4,1364
   11d24:	02f76463          	bltu	a4,a5,11d4c <_malloc_r+0x790>
   11d28:	0125d793          	srli	a5,a1,0x12
   11d2c:	07d78693          	addi	a3,a5,125
   11d30:	07c78713          	addi	a4,a5,124
   11d34:	00369693          	slli	a3,a3,0x3
   11d38:	cd9ff06f          	j	11a10 <_malloc_r+0x454>
   11d3c:	3f800693          	li	a3,1016
   11d40:	07f00613          	li	a2,127
   11d44:	07e00513          	li	a0,126
   11d48:	951ff06f          	j	11698 <_malloc_r+0xdc>
   11d4c:	3f800693          	li	a3,1016
   11d50:	07e00713          	li	a4,126
   11d54:	cbdff06f          	j	11a10 <_malloc_r+0x454>
   11d58:	0049a783          	lw	a5,4(s3)
   11d5c:	e5dff06f          	j	11bb8 <_malloc_r+0x5fc>

00011d60 <memchr>:
   11d60:	00357793          	andi	a5,a0,3
   11d64:	0ff5f693          	zext.b	a3,a1
   11d68:	02078a63          	beqz	a5,11d9c <memchr+0x3c>
   11d6c:	fff60793          	addi	a5,a2,-1
   11d70:	02060e63          	beqz	a2,11dac <memchr+0x4c>
   11d74:	fff00613          	li	a2,-1
   11d78:	0180006f          	j	11d90 <memchr+0x30>
   11d7c:	00150513          	addi	a0,a0,1
   11d80:	00357713          	andi	a4,a0,3
   11d84:	00070e63          	beqz	a4,11da0 <memchr+0x40>
   11d88:	fff78793          	addi	a5,a5,-1
   11d8c:	02c78063          	beq	a5,a2,11dac <memchr+0x4c>
   11d90:	00054703          	lbu	a4,0(a0)
   11d94:	fed714e3          	bne	a4,a3,11d7c <memchr+0x1c>
   11d98:	00008067          	ret
   11d9c:	00060793          	mv	a5,a2
   11da0:	00300713          	li	a4,3
   11da4:	02f76663          	bltu	a4,a5,11dd0 <memchr+0x70>
   11da8:	00079663          	bnez	a5,11db4 <memchr+0x54>
   11dac:	00000513          	li	a0,0
   11db0:	00008067          	ret
   11db4:	00f507b3          	add	a5,a0,a5
   11db8:	00c0006f          	j	11dc4 <memchr+0x64>
   11dbc:	00150513          	addi	a0,a0,1
   11dc0:	fea786e3          	beq	a5,a0,11dac <memchr+0x4c>
   11dc4:	00054703          	lbu	a4,0(a0)
   11dc8:	fed71ae3          	bne	a4,a3,11dbc <memchr+0x5c>
   11dcc:	00008067          	ret
   11dd0:	0ff5f593          	zext.b	a1,a1
   11dd4:	00859713          	slli	a4,a1,0x8
   11dd8:	00b76733          	or	a4,a4,a1
   11ddc:	01071893          	slli	a7,a4,0x10
   11de0:	feff0837          	lui	a6,0xfeff0
   11de4:	808085b7          	lui	a1,0x80808
   11de8:	00e8e8b3          	or	a7,a7,a4
   11dec:	eff80813          	addi	a6,a6,-257 # fefefeff <__BSS_END__+0xfefd82fb>
   11df0:	08058593          	addi	a1,a1,128 # 80808080 <__BSS_END__+0x807f047c>
   11df4:	00300313          	li	t1,3
   11df8:	00052703          	lw	a4,0(a0)
   11dfc:	00e8c733          	xor	a4,a7,a4
   11e00:	01070633          	add	a2,a4,a6
   11e04:	fff74713          	not	a4,a4
   11e08:	00e67733          	and	a4,a2,a4
   11e0c:	00b77733          	and	a4,a4,a1
   11e10:	fa0712e3          	bnez	a4,11db4 <memchr+0x54>
   11e14:	ffc78793          	addi	a5,a5,-4
   11e18:	00450513          	addi	a0,a0,4
   11e1c:	fcf36ee3          	bltu	t1,a5,11df8 <memchr+0x98>
   11e20:	f8079ae3          	bnez	a5,11db4 <memchr+0x54>
   11e24:	f89ff06f          	j	11dac <memchr+0x4c>

00011e28 <memcpy>:
   11e28:	00b547b3          	xor	a5,a0,a1
   11e2c:	0037f793          	andi	a5,a5,3
   11e30:	00c508b3          	add	a7,a0,a2
   11e34:	06079663          	bnez	a5,11ea0 <memcpy+0x78>
   11e38:	00300793          	li	a5,3
   11e3c:	06c7f263          	bgeu	a5,a2,11ea0 <memcpy+0x78>
   11e40:	00357793          	andi	a5,a0,3
   11e44:	00050713          	mv	a4,a0
   11e48:	0c079a63          	bnez	a5,11f1c <memcpy+0xf4>
   11e4c:	ffc8f613          	andi	a2,a7,-4
   11e50:	40e606b3          	sub	a3,a2,a4
   11e54:	02000793          	li	a5,32
   11e58:	02000293          	li	t0,32
   11e5c:	06d7c263          	blt	a5,a3,11ec0 <memcpy+0x98>
   11e60:	00058693          	mv	a3,a1
   11e64:	00070793          	mv	a5,a4
   11e68:	02c77863          	bgeu	a4,a2,11e98 <memcpy+0x70>
   11e6c:	0006a803          	lw	a6,0(a3)
   11e70:	00478793          	addi	a5,a5,4
   11e74:	00468693          	addi	a3,a3,4
   11e78:	ff07ae23          	sw	a6,-4(a5)
   11e7c:	fec7e8e3          	bltu	a5,a2,11e6c <memcpy+0x44>
   11e80:	fff60793          	addi	a5,a2,-1
   11e84:	40e787b3          	sub	a5,a5,a4
   11e88:	ffc7f793          	andi	a5,a5,-4
   11e8c:	00478793          	addi	a5,a5,4
   11e90:	00f70733          	add	a4,a4,a5
   11e94:	00f585b3          	add	a1,a1,a5
   11e98:	01176863          	bltu	a4,a7,11ea8 <memcpy+0x80>
   11e9c:	00008067          	ret
   11ea0:	00050713          	mv	a4,a0
   11ea4:	ff157ce3          	bgeu	a0,a7,11e9c <memcpy+0x74>
   11ea8:	0005c783          	lbu	a5,0(a1)
   11eac:	00170713          	addi	a4,a4,1
   11eb0:	00158593          	addi	a1,a1,1
   11eb4:	fef70fa3          	sb	a5,-1(a4)
   11eb8:	ff1768e3          	bltu	a4,a7,11ea8 <memcpy+0x80>
   11ebc:	00008067          	ret
   11ec0:	0045a683          	lw	a3,4(a1)
   11ec4:	01c5a783          	lw	a5,28(a1)
   11ec8:	0005af83          	lw	t6,0(a1)
   11ecc:	0085af03          	lw	t5,8(a1)
   11ed0:	00c5ae83          	lw	t4,12(a1)
   11ed4:	0105ae03          	lw	t3,16(a1)
   11ed8:	0145a303          	lw	t1,20(a1)
   11edc:	0185a803          	lw	a6,24(a1)
   11ee0:	00d72223          	sw	a3,4(a4)
   11ee4:	0205a683          	lw	a3,32(a1)
   11ee8:	01f72023          	sw	t6,0(a4)
   11eec:	01e72423          	sw	t5,8(a4)
   11ef0:	01d72623          	sw	t4,12(a4)
   11ef4:	01c72823          	sw	t3,16(a4)
   11ef8:	00672a23          	sw	t1,20(a4)
   11efc:	01072c23          	sw	a6,24(a4)
   11f00:	00f72e23          	sw	a5,28(a4)
   11f04:	02470713          	addi	a4,a4,36
   11f08:	40e607b3          	sub	a5,a2,a4
   11f0c:	fed72e23          	sw	a3,-4(a4)
   11f10:	02458593          	addi	a1,a1,36
   11f14:	faf2c6e3          	blt	t0,a5,11ec0 <memcpy+0x98>
   11f18:	f49ff06f          	j	11e60 <memcpy+0x38>
   11f1c:	0005c683          	lbu	a3,0(a1)
   11f20:	00170713          	addi	a4,a4,1
   11f24:	00377793          	andi	a5,a4,3
   11f28:	fed70fa3          	sb	a3,-1(a4)
   11f2c:	00158593          	addi	a1,a1,1
   11f30:	f0078ee3          	beqz	a5,11e4c <memcpy+0x24>
   11f34:	0005c683          	lbu	a3,0(a1)
   11f38:	00170713          	addi	a4,a4,1
   11f3c:	00377793          	andi	a5,a4,3
   11f40:	fed70fa3          	sb	a3,-1(a4)
   11f44:	00158593          	addi	a1,a1,1
   11f48:	fc079ae3          	bnez	a5,11f1c <memcpy+0xf4>
   11f4c:	f01ff06f          	j	11e4c <memcpy+0x24>

00011f50 <memmove>:
   11f50:	02a5f663          	bgeu	a1,a0,11f7c <memmove+0x2c>
   11f54:	00c587b3          	add	a5,a1,a2
   11f58:	02f57263          	bgeu	a0,a5,11f7c <memmove+0x2c>
   11f5c:	00c50733          	add	a4,a0,a2
   11f60:	0e060a63          	beqz	a2,12054 <memmove+0x104>
   11f64:	fff7c683          	lbu	a3,-1(a5)
   11f68:	fff78793          	addi	a5,a5,-1
   11f6c:	fff70713          	addi	a4,a4,-1
   11f70:	00d70023          	sb	a3,0(a4)
   11f74:	fef598e3          	bne	a1,a5,11f64 <memmove+0x14>
   11f78:	00008067          	ret
   11f7c:	00f00793          	li	a5,15
   11f80:	02c7e863          	bltu	a5,a2,11fb0 <memmove+0x60>
   11f84:	00050793          	mv	a5,a0
   11f88:	fff60693          	addi	a3,a2,-1
   11f8c:	0c060c63          	beqz	a2,12064 <memmove+0x114>
   11f90:	00168693          	addi	a3,a3,1
   11f94:	00d786b3          	add	a3,a5,a3
   11f98:	0005c703          	lbu	a4,0(a1)
   11f9c:	00178793          	addi	a5,a5,1
   11fa0:	00158593          	addi	a1,a1,1
   11fa4:	fee78fa3          	sb	a4,-1(a5)
   11fa8:	fed798e3          	bne	a5,a3,11f98 <memmove+0x48>
   11fac:	00008067          	ret
   11fb0:	00b567b3          	or	a5,a0,a1
   11fb4:	0037f793          	andi	a5,a5,3
   11fb8:	0a079063          	bnez	a5,12058 <memmove+0x108>
   11fbc:	ff060893          	addi	a7,a2,-16
   11fc0:	ff08f893          	andi	a7,a7,-16
   11fc4:	01088893          	addi	a7,a7,16
   11fc8:	01150833          	add	a6,a0,a7
   11fcc:	00058713          	mv	a4,a1
   11fd0:	00050793          	mv	a5,a0
   11fd4:	00072683          	lw	a3,0(a4)
   11fd8:	01070713          	addi	a4,a4,16
   11fdc:	01078793          	addi	a5,a5,16
   11fe0:	fed7a823          	sw	a3,-16(a5)
   11fe4:	ff472683          	lw	a3,-12(a4)
   11fe8:	fed7aa23          	sw	a3,-12(a5)
   11fec:	ff872683          	lw	a3,-8(a4)
   11ff0:	fed7ac23          	sw	a3,-8(a5)
   11ff4:	ffc72683          	lw	a3,-4(a4)
   11ff8:	fed7ae23          	sw	a3,-4(a5)
   11ffc:	fcf81ce3          	bne	a6,a5,11fd4 <memmove+0x84>
   12000:	00c67713          	andi	a4,a2,12
   12004:	011585b3          	add	a1,a1,a7
   12008:	00f67813          	andi	a6,a2,15
   1200c:	04070e63          	beqz	a4,12068 <memmove+0x118>
   12010:	00058713          	mv	a4,a1
   12014:	00078893          	mv	a7,a5
   12018:	00300e13          	li	t3,3
   1201c:	00072303          	lw	t1,0(a4)
   12020:	00470713          	addi	a4,a4,4
   12024:	40e806b3          	sub	a3,a6,a4
   12028:	0068a023          	sw	t1,0(a7)
   1202c:	00d586b3          	add	a3,a1,a3
   12030:	00488893          	addi	a7,a7,4
   12034:	fede64e3          	bltu	t3,a3,1201c <memmove+0xcc>
   12038:	ffc80713          	addi	a4,a6,-4
   1203c:	ffc77713          	andi	a4,a4,-4
   12040:	00470713          	addi	a4,a4,4
   12044:	00367613          	andi	a2,a2,3
   12048:	00e787b3          	add	a5,a5,a4
   1204c:	00e585b3          	add	a1,a1,a4
   12050:	f39ff06f          	j	11f88 <memmove+0x38>
   12054:	00008067          	ret
   12058:	fff60693          	addi	a3,a2,-1
   1205c:	00050793          	mv	a5,a0
   12060:	f31ff06f          	j	11f90 <memmove+0x40>
   12064:	00008067          	ret
   12068:	00080613          	mv	a2,a6
   1206c:	f1dff06f          	j	11f88 <memmove+0x38>

00012070 <__malloc_lock>:
   12070:	00008067          	ret

00012074 <__malloc_unlock>:
   12074:	00008067          	ret

00012078 <_realloc_r>:
   12078:	fd010113          	addi	sp,sp,-48
   1207c:	03212023          	sw	s2,32(sp)
   12080:	02112623          	sw	ra,44(sp)
   12084:	02812423          	sw	s0,40(sp)
   12088:	02912223          	sw	s1,36(sp)
   1208c:	01312e23          	sw	s3,28(sp)
   12090:	01412c23          	sw	s4,24(sp)
   12094:	01512a23          	sw	s5,20(sp)
   12098:	01612823          	sw	s6,16(sp)
   1209c:	01712623          	sw	s7,12(sp)
   120a0:	01812423          	sw	s8,8(sp)
   120a4:	00060913          	mv	s2,a2
   120a8:	1c058463          	beqz	a1,12270 <_realloc_r+0x1f8>
   120ac:	00058413          	mv	s0,a1
   120b0:	00050993          	mv	s3,a0
   120b4:	fbdff0ef          	jal	ra,12070 <__malloc_lock>
   120b8:	00b90493          	addi	s1,s2,11
   120bc:	01600713          	li	a4,22
   120c0:	ffc42783          	lw	a5,-4(s0)
   120c4:	0e977a63          	bgeu	a4,s1,121b8 <_realloc_r+0x140>
   120c8:	ff84f493          	andi	s1,s1,-8
   120cc:	00048713          	mv	a4,s1
   120d0:	0e04ca63          	bltz	s1,121c4 <_realloc_r+0x14c>
   120d4:	0f24e863          	bltu	s1,s2,121c4 <_realloc_r+0x14c>
   120d8:	ffc7fa13          	andi	s4,a5,-4
   120dc:	ff840a93          	addi	s5,s0,-8
   120e0:	12ea5c63          	bge	s4,a4,12218 <_realloc_r+0x1a0>
   120e4:	c2818c13          	addi	s8,gp,-984 # 17790 <__malloc_av_>
   120e8:	008c2583          	lw	a1,8(s8)
   120ec:	014a8633          	add	a2,s5,s4
   120f0:	00462683          	lw	a3,4(a2)
   120f4:	1ec58063          	beq	a1,a2,122d4 <_realloc_r+0x25c>
   120f8:	ffe6f593          	andi	a1,a3,-2
   120fc:	00b605b3          	add	a1,a2,a1
   12100:	0045a583          	lw	a1,4(a1)
   12104:	0015f593          	andi	a1,a1,1
   12108:	14059663          	bnez	a1,12254 <_realloc_r+0x1dc>
   1210c:	ffc6f693          	andi	a3,a3,-4
   12110:	00da05b3          	add	a1,s4,a3
   12114:	0ee5d863          	bge	a1,a4,12204 <_realloc_r+0x18c>
   12118:	0017f793          	andi	a5,a5,1
   1211c:	02079463          	bnez	a5,12144 <_realloc_r+0xcc>
   12120:	ff842b83          	lw	s7,-8(s0)
   12124:	417a8bb3          	sub	s7,s5,s7
   12128:	004ba783          	lw	a5,4(s7)
   1212c:	ffc7f793          	andi	a5,a5,-4
   12130:	00d786b3          	add	a3,a5,a3
   12134:	01468b33          	add	s6,a3,s4
   12138:	36eb5063          	bge	s6,a4,12498 <_realloc_r+0x420>
   1213c:	00fa0b33          	add	s6,s4,a5
   12140:	2ceb5263          	bge	s6,a4,12404 <_realloc_r+0x38c>
   12144:	00090593          	mv	a1,s2
   12148:	00098513          	mv	a0,s3
   1214c:	c70ff0ef          	jal	ra,115bc <_malloc_r>
   12150:	00050913          	mv	s2,a0
   12154:	04050c63          	beqz	a0,121ac <_realloc_r+0x134>
   12158:	ffc42783          	lw	a5,-4(s0)
   1215c:	ff850713          	addi	a4,a0,-8
   12160:	ffe7f793          	andi	a5,a5,-2
   12164:	00fa87b3          	add	a5,s5,a5
   12168:	28e78663          	beq	a5,a4,123f4 <_realloc_r+0x37c>
   1216c:	ffca0613          	addi	a2,s4,-4
   12170:	02400793          	li	a5,36
   12174:	30c7ec63          	bltu	a5,a2,1248c <_realloc_r+0x414>
   12178:	01300713          	li	a4,19
   1217c:	22c76063          	bltu	a4,a2,1239c <_realloc_r+0x324>
   12180:	00050793          	mv	a5,a0
   12184:	00040713          	mv	a4,s0
   12188:	00072683          	lw	a3,0(a4)
   1218c:	00d7a023          	sw	a3,0(a5)
   12190:	00472683          	lw	a3,4(a4)
   12194:	00d7a223          	sw	a3,4(a5)
   12198:	00872703          	lw	a4,8(a4)
   1219c:	00e7a423          	sw	a4,8(a5)
   121a0:	00040593          	mv	a1,s0
   121a4:	00098513          	mv	a0,s3
   121a8:	60d000ef          	jal	ra,12fb4 <_free_r>
   121ac:	00098513          	mv	a0,s3
   121b0:	ec5ff0ef          	jal	ra,12074 <__malloc_unlock>
   121b4:	01c0006f          	j	121d0 <_realloc_r+0x158>
   121b8:	01000493          	li	s1,16
   121bc:	01000713          	li	a4,16
   121c0:	f124fce3          	bgeu	s1,s2,120d8 <_realloc_r+0x60>
   121c4:	00c00793          	li	a5,12
   121c8:	00f9a023          	sw	a5,0(s3)
   121cc:	00000913          	li	s2,0
   121d0:	02c12083          	lw	ra,44(sp)
   121d4:	02812403          	lw	s0,40(sp)
   121d8:	02412483          	lw	s1,36(sp)
   121dc:	01c12983          	lw	s3,28(sp)
   121e0:	01812a03          	lw	s4,24(sp)
   121e4:	01412a83          	lw	s5,20(sp)
   121e8:	01012b03          	lw	s6,16(sp)
   121ec:	00c12b83          	lw	s7,12(sp)
   121f0:	00812c03          	lw	s8,8(sp)
   121f4:	00090513          	mv	a0,s2
   121f8:	02012903          	lw	s2,32(sp)
   121fc:	03010113          	addi	sp,sp,48
   12200:	00008067          	ret
   12204:	00c62783          	lw	a5,12(a2)
   12208:	00862703          	lw	a4,8(a2)
   1220c:	00058a13          	mv	s4,a1
   12210:	00f72623          	sw	a5,12(a4)
   12214:	00e7a423          	sw	a4,8(a5)
   12218:	004aa783          	lw	a5,4(s5)
   1221c:	409a06b3          	sub	a3,s4,s1
   12220:	00f00613          	li	a2,15
   12224:	0017f793          	andi	a5,a5,1
   12228:	014a8733          	add	a4,s5,s4
   1222c:	06d66c63          	bltu	a2,a3,122a4 <_realloc_r+0x22c>
   12230:	00fa67b3          	or	a5,s4,a5
   12234:	00faa223          	sw	a5,4(s5)
   12238:	00472783          	lw	a5,4(a4)
   1223c:	0017e793          	ori	a5,a5,1
   12240:	00f72223          	sw	a5,4(a4)
   12244:	00098513          	mv	a0,s3
   12248:	e2dff0ef          	jal	ra,12074 <__malloc_unlock>
   1224c:	00040913          	mv	s2,s0
   12250:	f81ff06f          	j	121d0 <_realloc_r+0x158>
   12254:	0017f793          	andi	a5,a5,1
   12258:	ee0796e3          	bnez	a5,12144 <_realloc_r+0xcc>
   1225c:	ff842b83          	lw	s7,-8(s0)
   12260:	417a8bb3          	sub	s7,s5,s7
   12264:	004ba783          	lw	a5,4(s7)
   12268:	ffc7f793          	andi	a5,a5,-4
   1226c:	ed1ff06f          	j	1213c <_realloc_r+0xc4>
   12270:	02812403          	lw	s0,40(sp)
   12274:	02c12083          	lw	ra,44(sp)
   12278:	02412483          	lw	s1,36(sp)
   1227c:	02012903          	lw	s2,32(sp)
   12280:	01c12983          	lw	s3,28(sp)
   12284:	01812a03          	lw	s4,24(sp)
   12288:	01412a83          	lw	s5,20(sp)
   1228c:	01012b03          	lw	s6,16(sp)
   12290:	00c12b83          	lw	s7,12(sp)
   12294:	00812c03          	lw	s8,8(sp)
   12298:	00060593          	mv	a1,a2
   1229c:	03010113          	addi	sp,sp,48
   122a0:	b1cff06f          	j	115bc <_malloc_r>
   122a4:	0097e7b3          	or	a5,a5,s1
   122a8:	00faa223          	sw	a5,4(s5)
   122ac:	009a85b3          	add	a1,s5,s1
   122b0:	0016e693          	ori	a3,a3,1
   122b4:	00d5a223          	sw	a3,4(a1)
   122b8:	00472783          	lw	a5,4(a4)
   122bc:	00858593          	addi	a1,a1,8
   122c0:	00098513          	mv	a0,s3
   122c4:	0017e793          	ori	a5,a5,1
   122c8:	00f72223          	sw	a5,4(a4)
   122cc:	4e9000ef          	jal	ra,12fb4 <_free_r>
   122d0:	f75ff06f          	j	12244 <_realloc_r+0x1cc>
   122d4:	ffc6f693          	andi	a3,a3,-4
   122d8:	00da0633          	add	a2,s4,a3
   122dc:	01048593          	addi	a1,s1,16
   122e0:	0eb65063          	bge	a2,a1,123c0 <_realloc_r+0x348>
   122e4:	0017f793          	andi	a5,a5,1
   122e8:	e4079ee3          	bnez	a5,12144 <_realloc_r+0xcc>
   122ec:	ff842b83          	lw	s7,-8(s0)
   122f0:	417a8bb3          	sub	s7,s5,s7
   122f4:	004ba783          	lw	a5,4(s7)
   122f8:	ffc7f793          	andi	a5,a5,-4
   122fc:	00d786b3          	add	a3,a5,a3
   12300:	01468b33          	add	s6,a3,s4
   12304:	e2bb4ce3          	blt	s6,a1,1213c <_realloc_r+0xc4>
   12308:	00cba783          	lw	a5,12(s7)
   1230c:	008ba703          	lw	a4,8(s7)
   12310:	ffca0613          	addi	a2,s4,-4
   12314:	02400693          	li	a3,36
   12318:	00f72623          	sw	a5,12(a4)
   1231c:	00e7a423          	sw	a4,8(a5)
   12320:	008b8913          	addi	s2,s7,8
   12324:	26c6e063          	bltu	a3,a2,12584 <_realloc_r+0x50c>
   12328:	01300713          	li	a4,19
   1232c:	00090793          	mv	a5,s2
   12330:	02c77263          	bgeu	a4,a2,12354 <_realloc_r+0x2dc>
   12334:	00042703          	lw	a4,0(s0)
   12338:	01b00793          	li	a5,27
   1233c:	00eba423          	sw	a4,8(s7)
   12340:	00442703          	lw	a4,4(s0)
   12344:	00eba623          	sw	a4,12(s7)
   12348:	24c7e663          	bltu	a5,a2,12594 <_realloc_r+0x51c>
   1234c:	00840413          	addi	s0,s0,8
   12350:	010b8793          	addi	a5,s7,16
   12354:	00042703          	lw	a4,0(s0)
   12358:	00e7a023          	sw	a4,0(a5)
   1235c:	00442703          	lw	a4,4(s0)
   12360:	00e7a223          	sw	a4,4(a5)
   12364:	00842703          	lw	a4,8(s0)
   12368:	00e7a423          	sw	a4,8(a5)
   1236c:	009b8733          	add	a4,s7,s1
   12370:	409b07b3          	sub	a5,s6,s1
   12374:	00ec2423          	sw	a4,8(s8)
   12378:	0017e793          	ori	a5,a5,1
   1237c:	00f72223          	sw	a5,4(a4)
   12380:	004ba783          	lw	a5,4(s7)
   12384:	00098513          	mv	a0,s3
   12388:	0017f793          	andi	a5,a5,1
   1238c:	0097e7b3          	or	a5,a5,s1
   12390:	00fba223          	sw	a5,4(s7)
   12394:	ce1ff0ef          	jal	ra,12074 <__malloc_unlock>
   12398:	e39ff06f          	j	121d0 <_realloc_r+0x158>
   1239c:	00042683          	lw	a3,0(s0)
   123a0:	01b00713          	li	a4,27
   123a4:	00d52023          	sw	a3,0(a0)
   123a8:	00442683          	lw	a3,4(s0)
   123ac:	00d52223          	sw	a3,4(a0)
   123b0:	18c76663          	bltu	a4,a2,1253c <_realloc_r+0x4c4>
   123b4:	00840713          	addi	a4,s0,8
   123b8:	00850793          	addi	a5,a0,8
   123bc:	dcdff06f          	j	12188 <_realloc_r+0x110>
   123c0:	009a8ab3          	add	s5,s5,s1
   123c4:	409607b3          	sub	a5,a2,s1
   123c8:	015c2423          	sw	s5,8(s8)
   123cc:	0017e793          	ori	a5,a5,1
   123d0:	00faa223          	sw	a5,4(s5)
   123d4:	ffc42783          	lw	a5,-4(s0)
   123d8:	00098513          	mv	a0,s3
   123dc:	00040913          	mv	s2,s0
   123e0:	0017f793          	andi	a5,a5,1
   123e4:	0097e7b3          	or	a5,a5,s1
   123e8:	fef42e23          	sw	a5,-4(s0)
   123ec:	c89ff0ef          	jal	ra,12074 <__malloc_unlock>
   123f0:	de1ff06f          	j	121d0 <_realloc_r+0x158>
   123f4:	ffc52783          	lw	a5,-4(a0)
   123f8:	ffc7f793          	andi	a5,a5,-4
   123fc:	00fa0a33          	add	s4,s4,a5
   12400:	e19ff06f          	j	12218 <_realloc_r+0x1a0>
   12404:	00cba783          	lw	a5,12(s7)
   12408:	008ba703          	lw	a4,8(s7)
   1240c:	ffca0613          	addi	a2,s4,-4
   12410:	02400693          	li	a3,36
   12414:	00f72623          	sw	a5,12(a4)
   12418:	00e7a423          	sw	a4,8(a5)
   1241c:	008b8913          	addi	s2,s7,8
   12420:	10c6e063          	bltu	a3,a2,12520 <_realloc_r+0x4a8>
   12424:	01300713          	li	a4,19
   12428:	00090793          	mv	a5,s2
   1242c:	02c77c63          	bgeu	a4,a2,12464 <_realloc_r+0x3ec>
   12430:	00042703          	lw	a4,0(s0)
   12434:	01b00793          	li	a5,27
   12438:	00eba423          	sw	a4,8(s7)
   1243c:	00442703          	lw	a4,4(s0)
   12440:	00eba623          	sw	a4,12(s7)
   12444:	10c7fc63          	bgeu	a5,a2,1255c <_realloc_r+0x4e4>
   12448:	00842783          	lw	a5,8(s0)
   1244c:	00fba823          	sw	a5,16(s7)
   12450:	00c42783          	lw	a5,12(s0)
   12454:	00fbaa23          	sw	a5,20(s7)
   12458:	0ad60663          	beq	a2,a3,12504 <_realloc_r+0x48c>
   1245c:	01040413          	addi	s0,s0,16
   12460:	018b8793          	addi	a5,s7,24
   12464:	00042703          	lw	a4,0(s0)
   12468:	000b0a13          	mv	s4,s6
   1246c:	000b8a93          	mv	s5,s7
   12470:	00e7a023          	sw	a4,0(a5)
   12474:	00442703          	lw	a4,4(s0)
   12478:	00e7a223          	sw	a4,4(a5)
   1247c:	00842703          	lw	a4,8(s0)
   12480:	00090413          	mv	s0,s2
   12484:	00e7a423          	sw	a4,8(a5)
   12488:	d91ff06f          	j	12218 <_realloc_r+0x1a0>
   1248c:	00040593          	mv	a1,s0
   12490:	ac1ff0ef          	jal	ra,11f50 <memmove>
   12494:	d0dff06f          	j	121a0 <_realloc_r+0x128>
   12498:	00c62783          	lw	a5,12(a2)
   1249c:	00862703          	lw	a4,8(a2)
   124a0:	02400693          	li	a3,36
   124a4:	ffca0613          	addi	a2,s4,-4
   124a8:	00f72623          	sw	a5,12(a4)
   124ac:	00e7a423          	sw	a4,8(a5)
   124b0:	008ba703          	lw	a4,8(s7)
   124b4:	00cba783          	lw	a5,12(s7)
   124b8:	008b8913          	addi	s2,s7,8
   124bc:	00f72623          	sw	a5,12(a4)
   124c0:	00e7a423          	sw	a4,8(a5)
   124c4:	04c6ee63          	bltu	a3,a2,12520 <_realloc_r+0x4a8>
   124c8:	01300713          	li	a4,19
   124cc:	00090793          	mv	a5,s2
   124d0:	f8c77ae3          	bgeu	a4,a2,12464 <_realloc_r+0x3ec>
   124d4:	00042703          	lw	a4,0(s0)
   124d8:	01b00793          	li	a5,27
   124dc:	00eba423          	sw	a4,8(s7)
   124e0:	00442703          	lw	a4,4(s0)
   124e4:	00eba623          	sw	a4,12(s7)
   124e8:	06c7fa63          	bgeu	a5,a2,1255c <_realloc_r+0x4e4>
   124ec:	00842703          	lw	a4,8(s0)
   124f0:	02400793          	li	a5,36
   124f4:	00eba823          	sw	a4,16(s7)
   124f8:	00c42703          	lw	a4,12(s0)
   124fc:	00ebaa23          	sw	a4,20(s7)
   12500:	f4f61ee3          	bne	a2,a5,1245c <_realloc_r+0x3e4>
   12504:	01042703          	lw	a4,16(s0)
   12508:	020b8793          	addi	a5,s7,32
   1250c:	01840413          	addi	s0,s0,24
   12510:	00ebac23          	sw	a4,24(s7)
   12514:	ffc42703          	lw	a4,-4(s0)
   12518:	00ebae23          	sw	a4,28(s7)
   1251c:	f49ff06f          	j	12464 <_realloc_r+0x3ec>
   12520:	00040593          	mv	a1,s0
   12524:	00090513          	mv	a0,s2
   12528:	a29ff0ef          	jal	ra,11f50 <memmove>
   1252c:	00090413          	mv	s0,s2
   12530:	000b0a13          	mv	s4,s6
   12534:	000b8a93          	mv	s5,s7
   12538:	ce1ff06f          	j	12218 <_realloc_r+0x1a0>
   1253c:	00842703          	lw	a4,8(s0)
   12540:	00e52423          	sw	a4,8(a0)
   12544:	00c42703          	lw	a4,12(s0)
   12548:	00e52623          	sw	a4,12(a0)
   1254c:	00f60e63          	beq	a2,a5,12568 <_realloc_r+0x4f0>
   12550:	01040713          	addi	a4,s0,16
   12554:	01050793          	addi	a5,a0,16
   12558:	c31ff06f          	j	12188 <_realloc_r+0x110>
   1255c:	00840413          	addi	s0,s0,8
   12560:	010b8793          	addi	a5,s7,16
   12564:	f01ff06f          	j	12464 <_realloc_r+0x3ec>
   12568:	01042683          	lw	a3,16(s0)
   1256c:	01840713          	addi	a4,s0,24
   12570:	01850793          	addi	a5,a0,24
   12574:	00d52823          	sw	a3,16(a0)
   12578:	01442683          	lw	a3,20(s0)
   1257c:	00d52a23          	sw	a3,20(a0)
   12580:	c09ff06f          	j	12188 <_realloc_r+0x110>
   12584:	00040593          	mv	a1,s0
   12588:	00090513          	mv	a0,s2
   1258c:	9c5ff0ef          	jal	ra,11f50 <memmove>
   12590:	dddff06f          	j	1236c <_realloc_r+0x2f4>
   12594:	00842783          	lw	a5,8(s0)
   12598:	00fba823          	sw	a5,16(s7)
   1259c:	00c42783          	lw	a5,12(s0)
   125a0:	00fbaa23          	sw	a5,20(s7)
   125a4:	00d60863          	beq	a2,a3,125b4 <_realloc_r+0x53c>
   125a8:	01040413          	addi	s0,s0,16
   125ac:	018b8793          	addi	a5,s7,24
   125b0:	da5ff06f          	j	12354 <_realloc_r+0x2dc>
   125b4:	01042703          	lw	a4,16(s0)
   125b8:	020b8793          	addi	a5,s7,32
   125bc:	01840413          	addi	s0,s0,24
   125c0:	00ebac23          	sw	a4,24(s7)
   125c4:	ffc42703          	lw	a4,-4(s0)
   125c8:	00ebae23          	sw	a4,28(s7)
   125cc:	d89ff06f          	j	12354 <_realloc_r+0x2dc>

000125d0 <_sbrk_r>:
   125d0:	ff010113          	addi	sp,sp,-16
   125d4:	00812423          	sw	s0,8(sp)
   125d8:	00050413          	mv	s0,a0
   125dc:	00058513          	mv	a0,a1
   125e0:	0401a823          	sw	zero,80(gp) # 17bb8 <errno>
   125e4:	00112623          	sw	ra,12(sp)
   125e8:	3e4010ef          	jal	ra,139cc <_sbrk>
   125ec:	fff00793          	li	a5,-1
   125f0:	00f50a63          	beq	a0,a5,12604 <_sbrk_r+0x34>
   125f4:	00c12083          	lw	ra,12(sp)
   125f8:	00812403          	lw	s0,8(sp)
   125fc:	01010113          	addi	sp,sp,16
   12600:	00008067          	ret
   12604:	0501a783          	lw	a5,80(gp) # 17bb8 <errno>
   12608:	fe0786e3          	beqz	a5,125f4 <_sbrk_r+0x24>
   1260c:	00c12083          	lw	ra,12(sp)
   12610:	00f42023          	sw	a5,0(s0)
   12614:	00812403          	lw	s0,8(sp)
   12618:	01010113          	addi	sp,sp,16
   1261c:	00008067          	ret

00012620 <__sread>:
   12620:	ff010113          	addi	sp,sp,-16
   12624:	00812423          	sw	s0,8(sp)
   12628:	00058413          	mv	s0,a1
   1262c:	00e59583          	lh	a1,14(a1)
   12630:	00112623          	sw	ra,12(sp)
   12634:	749000ef          	jal	ra,1357c <_read_r>
   12638:	02054063          	bltz	a0,12658 <__sread+0x38>
   1263c:	05042783          	lw	a5,80(s0)
   12640:	00c12083          	lw	ra,12(sp)
   12644:	00a787b3          	add	a5,a5,a0
   12648:	04f42823          	sw	a5,80(s0)
   1264c:	00812403          	lw	s0,8(sp)
   12650:	01010113          	addi	sp,sp,16
   12654:	00008067          	ret
   12658:	00c45783          	lhu	a5,12(s0)
   1265c:	fffff737          	lui	a4,0xfffff
   12660:	fff70713          	addi	a4,a4,-1 # ffffefff <__BSS_END__+0xfffe73fb>
   12664:	00e7f7b3          	and	a5,a5,a4
   12668:	00c12083          	lw	ra,12(sp)
   1266c:	00f41623          	sh	a5,12(s0)
   12670:	00812403          	lw	s0,8(sp)
   12674:	01010113          	addi	sp,sp,16
   12678:	00008067          	ret

0001267c <__seofread>:
   1267c:	00000513          	li	a0,0
   12680:	00008067          	ret

00012684 <__swrite>:
   12684:	00c59783          	lh	a5,12(a1)
   12688:	fe010113          	addi	sp,sp,-32
   1268c:	00812c23          	sw	s0,24(sp)
   12690:	00912a23          	sw	s1,20(sp)
   12694:	01212823          	sw	s2,16(sp)
   12698:	01312623          	sw	s3,12(sp)
   1269c:	00112e23          	sw	ra,28(sp)
   126a0:	1007f713          	andi	a4,a5,256
   126a4:	00058413          	mv	s0,a1
   126a8:	00050493          	mv	s1,a0
   126ac:	00060913          	mv	s2,a2
   126b0:	00068993          	mv	s3,a3
   126b4:	04071063          	bnez	a4,126f4 <__swrite+0x70>
   126b8:	fffff737          	lui	a4,0xfffff
   126bc:	fff70713          	addi	a4,a4,-1 # ffffefff <__BSS_END__+0xfffe73fb>
   126c0:	00e7f7b3          	and	a5,a5,a4
   126c4:	00e41583          	lh	a1,14(s0)
   126c8:	00f41623          	sh	a5,12(s0)
   126cc:	01812403          	lw	s0,24(sp)
   126d0:	01c12083          	lw	ra,28(sp)
   126d4:	00098693          	mv	a3,s3
   126d8:	00090613          	mv	a2,s2
   126dc:	00c12983          	lw	s3,12(sp)
   126e0:	01012903          	lw	s2,16(sp)
   126e4:	00048513          	mv	a0,s1
   126e8:	01412483          	lw	s1,20(sp)
   126ec:	02010113          	addi	sp,sp,32
   126f0:	08c0006f          	j	1277c <_write_r>
   126f4:	00e59583          	lh	a1,14(a1)
   126f8:	00200693          	li	a3,2
   126fc:	00000613          	li	a2,0
   12700:	3b5000ef          	jal	ra,132b4 <_lseek_r>
   12704:	00c41783          	lh	a5,12(s0)
   12708:	fb1ff06f          	j	126b8 <__swrite+0x34>

0001270c <__sseek>:
   1270c:	ff010113          	addi	sp,sp,-16
   12710:	00812423          	sw	s0,8(sp)
   12714:	00058413          	mv	s0,a1
   12718:	00e59583          	lh	a1,14(a1)
   1271c:	00112623          	sw	ra,12(sp)
   12720:	395000ef          	jal	ra,132b4 <_lseek_r>
   12724:	fff00793          	li	a5,-1
   12728:	02f50463          	beq	a0,a5,12750 <__sseek+0x44>
   1272c:	00c45783          	lhu	a5,12(s0)
   12730:	00001737          	lui	a4,0x1
   12734:	00c12083          	lw	ra,12(sp)
   12738:	00e7e7b3          	or	a5,a5,a4
   1273c:	04a42823          	sw	a0,80(s0)
   12740:	00f41623          	sh	a5,12(s0)
   12744:	00812403          	lw	s0,8(sp)
   12748:	01010113          	addi	sp,sp,16
   1274c:	00008067          	ret
   12750:	00c45783          	lhu	a5,12(s0)
   12754:	fffff737          	lui	a4,0xfffff
   12758:	fff70713          	addi	a4,a4,-1 # ffffefff <__BSS_END__+0xfffe73fb>
   1275c:	00e7f7b3          	and	a5,a5,a4
   12760:	00c12083          	lw	ra,12(sp)
   12764:	00f41623          	sh	a5,12(s0)
   12768:	00812403          	lw	s0,8(sp)
   1276c:	01010113          	addi	sp,sp,16
   12770:	00008067          	ret

00012774 <__sclose>:
   12774:	00e59583          	lh	a1,14(a1)
   12778:	2600006f          	j	129d8 <_close_r>

0001277c <_write_r>:
   1277c:	ff010113          	addi	sp,sp,-16
   12780:	00058713          	mv	a4,a1
   12784:	00812423          	sw	s0,8(sp)
   12788:	00060593          	mv	a1,a2
   1278c:	00050413          	mv	s0,a0
   12790:	00068613          	mv	a2,a3
   12794:	00070513          	mv	a0,a4
   12798:	0401a823          	sw	zero,80(gp) # 17bb8 <errno>
   1279c:	00112623          	sw	ra,12(sp)
   127a0:	2a8010ef          	jal	ra,13a48 <_write>
   127a4:	fff00793          	li	a5,-1
   127a8:	00f50a63          	beq	a0,a5,127bc <_write_r+0x40>
   127ac:	00c12083          	lw	ra,12(sp)
   127b0:	00812403          	lw	s0,8(sp)
   127b4:	01010113          	addi	sp,sp,16
   127b8:	00008067          	ret
   127bc:	0501a783          	lw	a5,80(gp) # 17bb8 <errno>
   127c0:	fe0786e3          	beqz	a5,127ac <_write_r+0x30>
   127c4:	00c12083          	lw	ra,12(sp)
   127c8:	00f42023          	sw	a5,0(s0)
   127cc:	00812403          	lw	s0,8(sp)
   127d0:	01010113          	addi	sp,sp,16
   127d4:	00008067          	ret

000127d8 <__swsetup_r>:
   127d8:	ff010113          	addi	sp,sp,-16
   127dc:	00812423          	sw	s0,8(sp)
   127e0:	00912223          	sw	s1,4(sp)
   127e4:	00112623          	sw	ra,12(sp)
   127e8:	0381a783          	lw	a5,56(gp) # 17ba0 <_impure_ptr>
   127ec:	00050493          	mv	s1,a0
   127f0:	00058413          	mv	s0,a1
   127f4:	00078663          	beqz	a5,12800 <__swsetup_r+0x28>
   127f8:	0387a703          	lw	a4,56(a5)
   127fc:	08070463          	beqz	a4,12884 <__swsetup_r+0xac>
   12800:	00c41703          	lh	a4,12(s0)
   12804:	01071793          	slli	a5,a4,0x10
   12808:	00877693          	andi	a3,a4,8
   1280c:	0107d793          	srli	a5,a5,0x10
   12810:	08068863          	beqz	a3,128a0 <__swsetup_r+0xc8>
   12814:	01042683          	lw	a3,16(s0)
   12818:	0a068863          	beqz	a3,128c8 <__swsetup_r+0xf0>
   1281c:	0017f613          	andi	a2,a5,1
   12820:	02060863          	beqz	a2,12850 <__swsetup_r+0x78>
   12824:	01442603          	lw	a2,20(s0)
   12828:	00042423          	sw	zero,8(s0)
   1282c:	00000513          	li	a0,0
   12830:	40c00633          	neg	a2,a2
   12834:	00c42c23          	sw	a2,24(s0)
   12838:	02068a63          	beqz	a3,1286c <__swsetup_r+0x94>
   1283c:	00c12083          	lw	ra,12(sp)
   12840:	00812403          	lw	s0,8(sp)
   12844:	00412483          	lw	s1,4(sp)
   12848:	01010113          	addi	sp,sp,16
   1284c:	00008067          	ret
   12850:	0027f613          	andi	a2,a5,2
   12854:	00000593          	li	a1,0
   12858:	00061463          	bnez	a2,12860 <__swsetup_r+0x88>
   1285c:	01442583          	lw	a1,20(s0)
   12860:	00b42423          	sw	a1,8(s0)
   12864:	00000513          	li	a0,0
   12868:	fc069ae3          	bnez	a3,1283c <__swsetup_r+0x64>
   1286c:	0807f793          	andi	a5,a5,128
   12870:	fc0786e3          	beqz	a5,1283c <__swsetup_r+0x64>
   12874:	04076713          	ori	a4,a4,64
   12878:	00e41623          	sh	a4,12(s0)
   1287c:	fff00513          	li	a0,-1
   12880:	fbdff06f          	j	1283c <__swsetup_r+0x64>
   12884:	00078513          	mv	a0,a5
   12888:	e90fe0ef          	jal	ra,10f18 <__sinit>
   1288c:	00c41703          	lh	a4,12(s0)
   12890:	01071793          	slli	a5,a4,0x10
   12894:	00877693          	andi	a3,a4,8
   12898:	0107d793          	srli	a5,a5,0x10
   1289c:	f6069ce3          	bnez	a3,12814 <__swsetup_r+0x3c>
   128a0:	0107f693          	andi	a3,a5,16
   128a4:	08068263          	beqz	a3,12928 <__swsetup_r+0x150>
   128a8:	0047f793          	andi	a5,a5,4
   128ac:	04079463          	bnez	a5,128f4 <__swsetup_r+0x11c>
   128b0:	01042683          	lw	a3,16(s0)
   128b4:	00876713          	ori	a4,a4,8
   128b8:	01071793          	slli	a5,a4,0x10
   128bc:	00e41623          	sh	a4,12(s0)
   128c0:	0107d793          	srli	a5,a5,0x10
   128c4:	f4069ce3          	bnez	a3,1281c <__swsetup_r+0x44>
   128c8:	2807f613          	andi	a2,a5,640
   128cc:	20000593          	li	a1,512
   128d0:	f4b606e3          	beq	a2,a1,1281c <__swsetup_r+0x44>
   128d4:	00040593          	mv	a1,s0
   128d8:	00048513          	mv	a0,s1
   128dc:	235000ef          	jal	ra,13310 <__smakebuf_r>
   128e0:	00c41703          	lh	a4,12(s0)
   128e4:	01042683          	lw	a3,16(s0)
   128e8:	01071793          	slli	a5,a4,0x10
   128ec:	0107d793          	srli	a5,a5,0x10
   128f0:	f2dff06f          	j	1281c <__swsetup_r+0x44>
   128f4:	03042583          	lw	a1,48(s0)
   128f8:	00058e63          	beqz	a1,12914 <__swsetup_r+0x13c>
   128fc:	04040793          	addi	a5,s0,64
   12900:	00f58863          	beq	a1,a5,12910 <__swsetup_r+0x138>
   12904:	00048513          	mv	a0,s1
   12908:	6ac000ef          	jal	ra,12fb4 <_free_r>
   1290c:	00c41703          	lh	a4,12(s0)
   12910:	02042823          	sw	zero,48(s0)
   12914:	01042683          	lw	a3,16(s0)
   12918:	fdb77713          	andi	a4,a4,-37
   1291c:	00042223          	sw	zero,4(s0)
   12920:	00d42023          	sw	a3,0(s0)
   12924:	f91ff06f          	j	128b4 <__swsetup_r+0xdc>
   12928:	00900793          	li	a5,9
   1292c:	00f4a023          	sw	a5,0(s1)
   12930:	04076713          	ori	a4,a4,64
   12934:	00e41623          	sh	a4,12(s0)
   12938:	fff00513          	li	a0,-1
   1293c:	f01ff06f          	j	1283c <__swsetup_r+0x64>

00012940 <__register_exitproc>:
   12940:	0301a703          	lw	a4,48(gp) # 17b98 <_global_impure_ptr>
   12944:	14872783          	lw	a5,328(a4)
   12948:	04078c63          	beqz	a5,129a0 <__register_exitproc+0x60>
   1294c:	0047a703          	lw	a4,4(a5)
   12950:	01f00813          	li	a6,31
   12954:	06e84e63          	blt	a6,a4,129d0 <__register_exitproc+0x90>
   12958:	00271813          	slli	a6,a4,0x2
   1295c:	02050663          	beqz	a0,12988 <__register_exitproc+0x48>
   12960:	01078333          	add	t1,a5,a6
   12964:	08c32423          	sw	a2,136(t1)
   12968:	1887a883          	lw	a7,392(a5)
   1296c:	00100613          	li	a2,1
   12970:	00e61633          	sll	a2,a2,a4
   12974:	00c8e8b3          	or	a7,a7,a2
   12978:	1917a423          	sw	a7,392(a5)
   1297c:	10d32423          	sw	a3,264(t1)
   12980:	00200693          	li	a3,2
   12984:	02d50463          	beq	a0,a3,129ac <__register_exitproc+0x6c>
   12988:	00170713          	addi	a4,a4,1
   1298c:	00e7a223          	sw	a4,4(a5)
   12990:	010787b3          	add	a5,a5,a6
   12994:	00b7a423          	sw	a1,8(a5)
   12998:	00000513          	li	a0,0
   1299c:	00008067          	ret
   129a0:	14c70793          	addi	a5,a4,332
   129a4:	14f72423          	sw	a5,328(a4)
   129a8:	fa5ff06f          	j	1294c <__register_exitproc+0xc>
   129ac:	18c7a683          	lw	a3,396(a5)
   129b0:	00170713          	addi	a4,a4,1
   129b4:	00e7a223          	sw	a4,4(a5)
   129b8:	00c6e6b3          	or	a3,a3,a2
   129bc:	18d7a623          	sw	a3,396(a5)
   129c0:	010787b3          	add	a5,a5,a6
   129c4:	00b7a423          	sw	a1,8(a5)
   129c8:	00000513          	li	a0,0
   129cc:	00008067          	ret
   129d0:	fff00513          	li	a0,-1
   129d4:	00008067          	ret

000129d8 <_close_r>:
   129d8:	ff010113          	addi	sp,sp,-16
   129dc:	00812423          	sw	s0,8(sp)
   129e0:	00050413          	mv	s0,a0
   129e4:	00058513          	mv	a0,a1
   129e8:	0401a823          	sw	zero,80(gp) # 17bb8 <errno>
   129ec:	00112623          	sw	ra,12(sp)
   129f0:	641000ef          	jal	ra,13830 <_close>
   129f4:	fff00793          	li	a5,-1
   129f8:	00f50a63          	beq	a0,a5,12a0c <_close_r+0x34>
   129fc:	00c12083          	lw	ra,12(sp)
   12a00:	00812403          	lw	s0,8(sp)
   12a04:	01010113          	addi	sp,sp,16
   12a08:	00008067          	ret
   12a0c:	0501a783          	lw	a5,80(gp) # 17bb8 <errno>
   12a10:	fe0786e3          	beqz	a5,129fc <_close_r+0x24>
   12a14:	00c12083          	lw	ra,12(sp)
   12a18:	00f42023          	sw	a5,0(s0)
   12a1c:	00812403          	lw	s0,8(sp)
   12a20:	01010113          	addi	sp,sp,16
   12a24:	00008067          	ret

00012a28 <_fclose_r>:
   12a28:	ff010113          	addi	sp,sp,-16
   12a2c:	00112623          	sw	ra,12(sp)
   12a30:	00812423          	sw	s0,8(sp)
   12a34:	00912223          	sw	s1,4(sp)
   12a38:	01212023          	sw	s2,0(sp)
   12a3c:	02058063          	beqz	a1,12a5c <_fclose_r+0x34>
   12a40:	00058413          	mv	s0,a1
   12a44:	00050493          	mv	s1,a0
   12a48:	00050663          	beqz	a0,12a54 <_fclose_r+0x2c>
   12a4c:	03852783          	lw	a5,56(a0)
   12a50:	0a078c63          	beqz	a5,12b08 <_fclose_r+0xe0>
   12a54:	00c41783          	lh	a5,12(s0)
   12a58:	02079263          	bnez	a5,12a7c <_fclose_r+0x54>
   12a5c:	00c12083          	lw	ra,12(sp)
   12a60:	00812403          	lw	s0,8(sp)
   12a64:	00000913          	li	s2,0
   12a68:	00412483          	lw	s1,4(sp)
   12a6c:	00090513          	mv	a0,s2
   12a70:	00012903          	lw	s2,0(sp)
   12a74:	01010113          	addi	sp,sp,16
   12a78:	00008067          	ret
   12a7c:	00040593          	mv	a1,s0
   12a80:	00048513          	mv	a0,s1
   12a84:	0c0000ef          	jal	ra,12b44 <__sflush_r>
   12a88:	02c42783          	lw	a5,44(s0)
   12a8c:	00050913          	mv	s2,a0
   12a90:	00078a63          	beqz	a5,12aa4 <_fclose_r+0x7c>
   12a94:	01c42583          	lw	a1,28(s0)
   12a98:	00048513          	mv	a0,s1
   12a9c:	000780e7          	jalr	a5
   12aa0:	06054c63          	bltz	a0,12b18 <_fclose_r+0xf0>
   12aa4:	00c45783          	lhu	a5,12(s0)
   12aa8:	0807f793          	andi	a5,a5,128
   12aac:	06079e63          	bnez	a5,12b28 <_fclose_r+0x100>
   12ab0:	03042583          	lw	a1,48(s0)
   12ab4:	00058c63          	beqz	a1,12acc <_fclose_r+0xa4>
   12ab8:	04040793          	addi	a5,s0,64
   12abc:	00f58663          	beq	a1,a5,12ac8 <_fclose_r+0xa0>
   12ac0:	00048513          	mv	a0,s1
   12ac4:	4f0000ef          	jal	ra,12fb4 <_free_r>
   12ac8:	02042823          	sw	zero,48(s0)
   12acc:	04442583          	lw	a1,68(s0)
   12ad0:	00058863          	beqz	a1,12ae0 <_fclose_r+0xb8>
   12ad4:	00048513          	mv	a0,s1
   12ad8:	4dc000ef          	jal	ra,12fb4 <_free_r>
   12adc:	04042223          	sw	zero,68(s0)
   12ae0:	c48fe0ef          	jal	ra,10f28 <__sfp_lock_acquire>
   12ae4:	00041623          	sh	zero,12(s0)
   12ae8:	c44fe0ef          	jal	ra,10f2c <__sfp_lock_release>
   12aec:	00c12083          	lw	ra,12(sp)
   12af0:	00812403          	lw	s0,8(sp)
   12af4:	00412483          	lw	s1,4(sp)
   12af8:	00090513          	mv	a0,s2
   12afc:	00012903          	lw	s2,0(sp)
   12b00:	01010113          	addi	sp,sp,16
   12b04:	00008067          	ret
   12b08:	c10fe0ef          	jal	ra,10f18 <__sinit>
   12b0c:	00c41783          	lh	a5,12(s0)
   12b10:	f40786e3          	beqz	a5,12a5c <_fclose_r+0x34>
   12b14:	f69ff06f          	j	12a7c <_fclose_r+0x54>
   12b18:	00c45783          	lhu	a5,12(s0)
   12b1c:	fff00913          	li	s2,-1
   12b20:	0807f793          	andi	a5,a5,128
   12b24:	f80786e3          	beqz	a5,12ab0 <_fclose_r+0x88>
   12b28:	01042583          	lw	a1,16(s0)
   12b2c:	00048513          	mv	a0,s1
   12b30:	484000ef          	jal	ra,12fb4 <_free_r>
   12b34:	f7dff06f          	j	12ab0 <_fclose_r+0x88>

00012b38 <fclose>:
   12b38:	00050593          	mv	a1,a0
   12b3c:	0381a503          	lw	a0,56(gp) # 17ba0 <_impure_ptr>
   12b40:	ee9ff06f          	j	12a28 <_fclose_r>

00012b44 <__sflush_r>:
   12b44:	00c59783          	lh	a5,12(a1)
   12b48:	fe010113          	addi	sp,sp,-32
   12b4c:	00812c23          	sw	s0,24(sp)
   12b50:	01312623          	sw	s3,12(sp)
   12b54:	00112e23          	sw	ra,28(sp)
   12b58:	00912a23          	sw	s1,20(sp)
   12b5c:	01212823          	sw	s2,16(sp)
   12b60:	0087f693          	andi	a3,a5,8
   12b64:	00058413          	mv	s0,a1
   12b68:	00050993          	mv	s3,a0
   12b6c:	10069c63          	bnez	a3,12c84 <__sflush_r+0x140>
   12b70:	00001737          	lui	a4,0x1
   12b74:	80070713          	addi	a4,a4,-2048 # 800 <main-0xf874>
   12b78:	0045a683          	lw	a3,4(a1)
   12b7c:	00e7e7b3          	or	a5,a5,a4
   12b80:	00f59623          	sh	a5,12(a1)
   12b84:	18d05663          	blez	a3,12d10 <__sflush_r+0x1cc>
   12b88:	02842703          	lw	a4,40(s0)
   12b8c:	0c070c63          	beqz	a4,12c64 <__sflush_r+0x120>
   12b90:	01079793          	slli	a5,a5,0x10
   12b94:	0107d793          	srli	a5,a5,0x10
   12b98:	000016b7          	lui	a3,0x1
   12b9c:	0009a483          	lw	s1,0(s3)
   12ba0:	00d7f6b3          	and	a3,a5,a3
   12ba4:	0009a023          	sw	zero,0(s3)
   12ba8:	01c42583          	lw	a1,28(s0)
   12bac:	16069863          	bnez	a3,12d1c <__sflush_r+0x1d8>
   12bb0:	00100693          	li	a3,1
   12bb4:	00000613          	li	a2,0
   12bb8:	00098513          	mv	a0,s3
   12bbc:	000700e7          	jalr	a4
   12bc0:	fff00793          	li	a5,-1
   12bc4:	18f50e63          	beq	a0,a5,12d60 <__sflush_r+0x21c>
   12bc8:	00c45783          	lhu	a5,12(s0)
   12bcc:	02842703          	lw	a4,40(s0)
   12bd0:	01c42583          	lw	a1,28(s0)
   12bd4:	0047f793          	andi	a5,a5,4
   12bd8:	00078e63          	beqz	a5,12bf4 <__sflush_r+0xb0>
   12bdc:	00442683          	lw	a3,4(s0)
   12be0:	03042783          	lw	a5,48(s0)
   12be4:	40d50533          	sub	a0,a0,a3
   12be8:	00078663          	beqz	a5,12bf4 <__sflush_r+0xb0>
   12bec:	03c42783          	lw	a5,60(s0)
   12bf0:	40f50533          	sub	a0,a0,a5
   12bf4:	00050613          	mv	a2,a0
   12bf8:	00000693          	li	a3,0
   12bfc:	00098513          	mv	a0,s3
   12c00:	000700e7          	jalr	a4
   12c04:	fff00793          	li	a5,-1
   12c08:	10f51e63          	bne	a0,a5,12d24 <__sflush_r+0x1e0>
   12c0c:	0009a703          	lw	a4,0(s3)
   12c10:	00c41783          	lh	a5,12(s0)
   12c14:	16070a63          	beqz	a4,12d88 <__sflush_r+0x244>
   12c18:	01d00693          	li	a3,29
   12c1c:	00d70663          	beq	a4,a3,12c28 <__sflush_r+0xe4>
   12c20:	01600693          	li	a3,22
   12c24:	0cd71463          	bne	a4,a3,12cec <__sflush_r+0x1a8>
   12c28:	01042683          	lw	a3,16(s0)
   12c2c:	fffff737          	lui	a4,0xfffff
   12c30:	7ff70713          	addi	a4,a4,2047 # fffff7ff <__BSS_END__+0xfffe7bfb>
   12c34:	00e7f7b3          	and	a5,a5,a4
   12c38:	00f41623          	sh	a5,12(s0)
   12c3c:	00042223          	sw	zero,4(s0)
   12c40:	00d42023          	sw	a3,0(s0)
   12c44:	03042583          	lw	a1,48(s0)
   12c48:	0099a023          	sw	s1,0(s3)
   12c4c:	00058c63          	beqz	a1,12c64 <__sflush_r+0x120>
   12c50:	04040793          	addi	a5,s0,64
   12c54:	00f58663          	beq	a1,a5,12c60 <__sflush_r+0x11c>
   12c58:	00098513          	mv	a0,s3
   12c5c:	358000ef          	jal	ra,12fb4 <_free_r>
   12c60:	02042823          	sw	zero,48(s0)
   12c64:	00000513          	li	a0,0
   12c68:	01c12083          	lw	ra,28(sp)
   12c6c:	01812403          	lw	s0,24(sp)
   12c70:	01412483          	lw	s1,20(sp)
   12c74:	01012903          	lw	s2,16(sp)
   12c78:	00c12983          	lw	s3,12(sp)
   12c7c:	02010113          	addi	sp,sp,32
   12c80:	00008067          	ret
   12c84:	0105a903          	lw	s2,16(a1)
   12c88:	fc090ee3          	beqz	s2,12c64 <__sflush_r+0x120>
   12c8c:	0005a483          	lw	s1,0(a1)
   12c90:	01079713          	slli	a4,a5,0x10
   12c94:	01075713          	srli	a4,a4,0x10
   12c98:	00377713          	andi	a4,a4,3
   12c9c:	0125a023          	sw	s2,0(a1)
   12ca0:	412484b3          	sub	s1,s1,s2
   12ca4:	00000793          	li	a5,0
   12ca8:	00071463          	bnez	a4,12cb0 <__sflush_r+0x16c>
   12cac:	0145a783          	lw	a5,20(a1)
   12cb0:	00f42423          	sw	a5,8(s0)
   12cb4:	00904863          	bgtz	s1,12cc4 <__sflush_r+0x180>
   12cb8:	fadff06f          	j	12c64 <__sflush_r+0x120>
   12cbc:	00a90933          	add	s2,s2,a0
   12cc0:	fa9052e3          	blez	s1,12c64 <__sflush_r+0x120>
   12cc4:	02442783          	lw	a5,36(s0)
   12cc8:	01c42583          	lw	a1,28(s0)
   12ccc:	00048693          	mv	a3,s1
   12cd0:	00090613          	mv	a2,s2
   12cd4:	00098513          	mv	a0,s3
   12cd8:	000780e7          	jalr	a5
   12cdc:	40a484b3          	sub	s1,s1,a0
   12ce0:	fca04ee3          	bgtz	a0,12cbc <__sflush_r+0x178>
   12ce4:	00c45783          	lhu	a5,12(s0)
   12ce8:	fff00513          	li	a0,-1
   12cec:	0407e793          	ori	a5,a5,64
   12cf0:	01c12083          	lw	ra,28(sp)
   12cf4:	00f41623          	sh	a5,12(s0)
   12cf8:	01812403          	lw	s0,24(sp)
   12cfc:	01412483          	lw	s1,20(sp)
   12d00:	01012903          	lw	s2,16(sp)
   12d04:	00c12983          	lw	s3,12(sp)
   12d08:	02010113          	addi	sp,sp,32
   12d0c:	00008067          	ret
   12d10:	03c5a703          	lw	a4,60(a1)
   12d14:	e6e04ae3          	bgtz	a4,12b88 <__sflush_r+0x44>
   12d18:	f4dff06f          	j	12c64 <__sflush_r+0x120>
   12d1c:	05042503          	lw	a0,80(s0)
   12d20:	eb5ff06f          	j	12bd4 <__sflush_r+0x90>
   12d24:	00c45783          	lhu	a5,12(s0)
   12d28:	fffff737          	lui	a4,0xfffff
   12d2c:	7ff70713          	addi	a4,a4,2047 # fffff7ff <__BSS_END__+0xfffe7bfb>
   12d30:	00e7f7b3          	and	a5,a5,a4
   12d34:	01042683          	lw	a3,16(s0)
   12d38:	01079793          	slli	a5,a5,0x10
   12d3c:	4107d793          	srai	a5,a5,0x10
   12d40:	00c7d713          	srli	a4,a5,0xc
   12d44:	00f41623          	sh	a5,12(s0)
   12d48:	00042223          	sw	zero,4(s0)
   12d4c:	00d42023          	sw	a3,0(s0)
   12d50:	00177793          	andi	a5,a4,1
   12d54:	ee0788e3          	beqz	a5,12c44 <__sflush_r+0x100>
   12d58:	04a42823          	sw	a0,80(s0)
   12d5c:	ee9ff06f          	j	12c44 <__sflush_r+0x100>
   12d60:	0009a783          	lw	a5,0(s3)
   12d64:	e60782e3          	beqz	a5,12bc8 <__sflush_r+0x84>
   12d68:	01d00713          	li	a4,29
   12d6c:	02e78863          	beq	a5,a4,12d9c <__sflush_r+0x258>
   12d70:	01600713          	li	a4,22
   12d74:	02e78463          	beq	a5,a4,12d9c <__sflush_r+0x258>
   12d78:	00c45783          	lhu	a5,12(s0)
   12d7c:	0407e793          	ori	a5,a5,64
   12d80:	00f41623          	sh	a5,12(s0)
   12d84:	ee5ff06f          	j	12c68 <__sflush_r+0x124>
   12d88:	fffff737          	lui	a4,0xfffff
   12d8c:	7ff70713          	addi	a4,a4,2047 # fffff7ff <__BSS_END__+0xfffe7bfb>
   12d90:	01042683          	lw	a3,16(s0)
   12d94:	00e7f7b3          	and	a5,a5,a4
   12d98:	fa9ff06f          	j	12d40 <__sflush_r+0x1fc>
   12d9c:	0099a023          	sw	s1,0(s3)
   12da0:	00000513          	li	a0,0
   12da4:	ec5ff06f          	j	12c68 <__sflush_r+0x124>

00012da8 <_fflush_r>:
   12da8:	fe010113          	addi	sp,sp,-32
   12dac:	00812c23          	sw	s0,24(sp)
   12db0:	00112e23          	sw	ra,28(sp)
   12db4:	00050413          	mv	s0,a0
   12db8:	00050663          	beqz	a0,12dc4 <_fflush_r+0x1c>
   12dbc:	03852783          	lw	a5,56(a0)
   12dc0:	02078063          	beqz	a5,12de0 <_fflush_r+0x38>
   12dc4:	00c59783          	lh	a5,12(a1)
   12dc8:	02079663          	bnez	a5,12df4 <_fflush_r+0x4c>
   12dcc:	01c12083          	lw	ra,28(sp)
   12dd0:	01812403          	lw	s0,24(sp)
   12dd4:	00000513          	li	a0,0
   12dd8:	02010113          	addi	sp,sp,32
   12ddc:	00008067          	ret
   12de0:	00b12623          	sw	a1,12(sp)
   12de4:	934fe0ef          	jal	ra,10f18 <__sinit>
   12de8:	00c12583          	lw	a1,12(sp)
   12dec:	00c59783          	lh	a5,12(a1)
   12df0:	fc078ee3          	beqz	a5,12dcc <_fflush_r+0x24>
   12df4:	00040513          	mv	a0,s0
   12df8:	01812403          	lw	s0,24(sp)
   12dfc:	01c12083          	lw	ra,28(sp)
   12e00:	02010113          	addi	sp,sp,32
   12e04:	d41ff06f          	j	12b44 <__sflush_r>

00012e08 <fflush>:
   12e08:	06050663          	beqz	a0,12e74 <fflush+0x6c>
   12e0c:	fe010113          	addi	sp,sp,-32
   12e10:	00812c23          	sw	s0,24(sp)
   12e14:	00112e23          	sw	ra,28(sp)
   12e18:	00050413          	mv	s0,a0
   12e1c:	0381a503          	lw	a0,56(gp) # 17ba0 <_impure_ptr>
   12e20:	00050663          	beqz	a0,12e2c <fflush+0x24>
   12e24:	03852783          	lw	a5,56(a0)
   12e28:	02078a63          	beqz	a5,12e5c <fflush+0x54>
   12e2c:	00c41783          	lh	a5,12(s0)
   12e30:	00079c63          	bnez	a5,12e48 <fflush+0x40>
   12e34:	01c12083          	lw	ra,28(sp)
   12e38:	01812403          	lw	s0,24(sp)
   12e3c:	00000513          	li	a0,0
   12e40:	02010113          	addi	sp,sp,32
   12e44:	00008067          	ret
   12e48:	00040593          	mv	a1,s0
   12e4c:	01812403          	lw	s0,24(sp)
   12e50:	01c12083          	lw	ra,28(sp)
   12e54:	02010113          	addi	sp,sp,32
   12e58:	cedff06f          	j	12b44 <__sflush_r>
   12e5c:	00a12623          	sw	a0,12(sp)
   12e60:	8b8fe0ef          	jal	ra,10f18 <__sinit>
   12e64:	00c41783          	lh	a5,12(s0)
   12e68:	00c12503          	lw	a0,12(sp)
   12e6c:	fc0784e3          	beqz	a5,12e34 <fflush+0x2c>
   12e70:	fd9ff06f          	j	12e48 <fflush+0x40>
   12e74:	00000597          	auipc	a1,0x0
   12e78:	f3458593          	addi	a1,a1,-204 # 12da8 <_fflush_r>
   12e7c:	0301a503          	lw	a0,48(gp) # 17b98 <_global_impure_ptr>
   12e80:	e88fe06f          	j	11508 <_fwalk_reent>

00012e84 <_malloc_trim_r>:
   12e84:	fe010113          	addi	sp,sp,-32
   12e88:	00812c23          	sw	s0,24(sp)
   12e8c:	00912a23          	sw	s1,20(sp)
   12e90:	01212823          	sw	s2,16(sp)
   12e94:	01312623          	sw	s3,12(sp)
   12e98:	01412423          	sw	s4,8(sp)
   12e9c:	00058993          	mv	s3,a1
   12ea0:	00112e23          	sw	ra,28(sp)
   12ea4:	c2818a13          	addi	s4,gp,-984 # 17790 <__malloc_av_>
   12ea8:	00050913          	mv	s2,a0
   12eac:	9c4ff0ef          	jal	ra,12070 <__malloc_lock>
   12eb0:	008a2703          	lw	a4,8(s4)
   12eb4:	000017b7          	lui	a5,0x1
   12eb8:	fef78413          	addi	s0,a5,-17 # fef <main-0xf085>
   12ebc:	00472483          	lw	s1,4(a4)
   12ec0:	41340433          	sub	s0,s0,s3
   12ec4:	ffc4f493          	andi	s1,s1,-4
   12ec8:	00940433          	add	s0,s0,s1
   12ecc:	00c45413          	srli	s0,s0,0xc
   12ed0:	fff40413          	addi	s0,s0,-1
   12ed4:	00c41413          	slli	s0,s0,0xc
   12ed8:	00f44e63          	blt	s0,a5,12ef4 <_malloc_trim_r+0x70>
   12edc:	00000593          	li	a1,0
   12ee0:	00090513          	mv	a0,s2
   12ee4:	eecff0ef          	jal	ra,125d0 <_sbrk_r>
   12ee8:	008a2783          	lw	a5,8(s4)
   12eec:	009787b3          	add	a5,a5,s1
   12ef0:	02f50863          	beq	a0,a5,12f20 <_malloc_trim_r+0x9c>
   12ef4:	00090513          	mv	a0,s2
   12ef8:	97cff0ef          	jal	ra,12074 <__malloc_unlock>
   12efc:	01c12083          	lw	ra,28(sp)
   12f00:	01812403          	lw	s0,24(sp)
   12f04:	01412483          	lw	s1,20(sp)
   12f08:	01012903          	lw	s2,16(sp)
   12f0c:	00c12983          	lw	s3,12(sp)
   12f10:	00812a03          	lw	s4,8(sp)
   12f14:	00000513          	li	a0,0
   12f18:	02010113          	addi	sp,sp,32
   12f1c:	00008067          	ret
   12f20:	408005b3          	neg	a1,s0
   12f24:	00090513          	mv	a0,s2
   12f28:	ea8ff0ef          	jal	ra,125d0 <_sbrk_r>
   12f2c:	fff00793          	li	a5,-1
   12f30:	04f50863          	beq	a0,a5,12f80 <_malloc_trim_r+0xfc>
   12f34:	07418713          	addi	a4,gp,116 # 17bdc <__malloc_current_mallinfo>
   12f38:	00072783          	lw	a5,0(a4)
   12f3c:	008a2683          	lw	a3,8(s4)
   12f40:	408484b3          	sub	s1,s1,s0
   12f44:	0014e493          	ori	s1,s1,1
   12f48:	408787b3          	sub	a5,a5,s0
   12f4c:	00090513          	mv	a0,s2
   12f50:	0096a223          	sw	s1,4(a3) # 1004 <main-0xf070>
   12f54:	00f72023          	sw	a5,0(a4)
   12f58:	91cff0ef          	jal	ra,12074 <__malloc_unlock>
   12f5c:	01c12083          	lw	ra,28(sp)
   12f60:	01812403          	lw	s0,24(sp)
   12f64:	01412483          	lw	s1,20(sp)
   12f68:	01012903          	lw	s2,16(sp)
   12f6c:	00c12983          	lw	s3,12(sp)
   12f70:	00812a03          	lw	s4,8(sp)
   12f74:	00100513          	li	a0,1
   12f78:	02010113          	addi	sp,sp,32
   12f7c:	00008067          	ret
   12f80:	00000593          	li	a1,0
   12f84:	00090513          	mv	a0,s2
   12f88:	e48ff0ef          	jal	ra,125d0 <_sbrk_r>
   12f8c:	008a2703          	lw	a4,8(s4)
   12f90:	00f00693          	li	a3,15
   12f94:	40e507b3          	sub	a5,a0,a4
   12f98:	f4f6dee3          	bge	a3,a5,12ef4 <_malloc_trim_r+0x70>
   12f9c:	03c1a683          	lw	a3,60(gp) # 17ba4 <__malloc_sbrk_base>
   12fa0:	40d50533          	sub	a0,a0,a3
   12fa4:	0017e793          	ori	a5,a5,1
   12fa8:	06a1aa23          	sw	a0,116(gp) # 17bdc <__malloc_current_mallinfo>
   12fac:	00f72223          	sw	a5,4(a4)
   12fb0:	f45ff06f          	j	12ef4 <_malloc_trim_r+0x70>

00012fb4 <_free_r>:
   12fb4:	12058463          	beqz	a1,130dc <_free_r+0x128>
   12fb8:	ff010113          	addi	sp,sp,-16
   12fbc:	00812423          	sw	s0,8(sp)
   12fc0:	00912223          	sw	s1,4(sp)
   12fc4:	00058413          	mv	s0,a1
   12fc8:	00050493          	mv	s1,a0
   12fcc:	00112623          	sw	ra,12(sp)
   12fd0:	8a0ff0ef          	jal	ra,12070 <__malloc_lock>
   12fd4:	ffc42583          	lw	a1,-4(s0)
   12fd8:	ff840713          	addi	a4,s0,-8
   12fdc:	c2818813          	addi	a6,gp,-984 # 17790 <__malloc_av_>
   12fe0:	ffe5f793          	andi	a5,a1,-2
   12fe4:	00f70633          	add	a2,a4,a5
   12fe8:	00462683          	lw	a3,4(a2)
   12fec:	00882503          	lw	a0,8(a6)
   12ff0:	ffc6f693          	andi	a3,a3,-4
   12ff4:	1ac50663          	beq	a0,a2,131a0 <_free_r+0x1ec>
   12ff8:	00d62223          	sw	a3,4(a2)
   12ffc:	0015f593          	andi	a1,a1,1
   13000:	00d60533          	add	a0,a2,a3
   13004:	08059e63          	bnez	a1,130a0 <_free_r+0xec>
   13008:	ff842303          	lw	t1,-8(s0)
   1300c:	00452583          	lw	a1,4(a0)
   13010:	c3018893          	addi	a7,gp,-976 # 17798 <__malloc_av_+0x8>
   13014:	40670733          	sub	a4,a4,t1
   13018:	00872503          	lw	a0,8(a4)
   1301c:	006787b3          	add	a5,a5,t1
   13020:	0015f593          	andi	a1,a1,1
   13024:	13150e63          	beq	a0,a7,13160 <_free_r+0x1ac>
   13028:	00c72303          	lw	t1,12(a4)
   1302c:	00652623          	sw	t1,12(a0)
   13030:	00a32423          	sw	a0,8(t1)
   13034:	1c058e63          	beqz	a1,13210 <_free_r+0x25c>
   13038:	0017e693          	ori	a3,a5,1
   1303c:	00d72223          	sw	a3,4(a4)
   13040:	00f62023          	sw	a5,0(a2)
   13044:	1ff00693          	li	a3,511
   13048:	0af6e663          	bltu	a3,a5,130f4 <_free_r+0x140>
   1304c:	ff87f693          	andi	a3,a5,-8
   13050:	00868693          	addi	a3,a3,8
   13054:	00482583          	lw	a1,4(a6)
   13058:	00d806b3          	add	a3,a6,a3
   1305c:	0006a603          	lw	a2,0(a3)
   13060:	0057d513          	srli	a0,a5,0x5
   13064:	00100793          	li	a5,1
   13068:	00a797b3          	sll	a5,a5,a0
   1306c:	00b7e7b3          	or	a5,a5,a1
   13070:	ff868593          	addi	a1,a3,-8
   13074:	00b72623          	sw	a1,12(a4)
   13078:	00c72423          	sw	a2,8(a4)
   1307c:	00f82223          	sw	a5,4(a6)
   13080:	00e6a023          	sw	a4,0(a3)
   13084:	00e62623          	sw	a4,12(a2)
   13088:	00812403          	lw	s0,8(sp)
   1308c:	00c12083          	lw	ra,12(sp)
   13090:	00048513          	mv	a0,s1
   13094:	00412483          	lw	s1,4(sp)
   13098:	01010113          	addi	sp,sp,16
   1309c:	fd9fe06f          	j	12074 <__malloc_unlock>
   130a0:	00452583          	lw	a1,4(a0)
   130a4:	0015f593          	andi	a1,a1,1
   130a8:	02059c63          	bnez	a1,130e0 <_free_r+0x12c>
   130ac:	00d787b3          	add	a5,a5,a3
   130b0:	c3018893          	addi	a7,gp,-976 # 17798 <__malloc_av_+0x8>
   130b4:	00862683          	lw	a3,8(a2)
   130b8:	0017e513          	ori	a0,a5,1
   130bc:	00f705b3          	add	a1,a4,a5
   130c0:	17168463          	beq	a3,a7,13228 <_free_r+0x274>
   130c4:	00c62603          	lw	a2,12(a2)
   130c8:	00c6a623          	sw	a2,12(a3)
   130cc:	00d62423          	sw	a3,8(a2)
   130d0:	00a72223          	sw	a0,4(a4)
   130d4:	00f5a023          	sw	a5,0(a1)
   130d8:	f6dff06f          	j	13044 <_free_r+0x90>
   130dc:	00008067          	ret
   130e0:	0017e693          	ori	a3,a5,1
   130e4:	fed42e23          	sw	a3,-4(s0)
   130e8:	00f62023          	sw	a5,0(a2)
   130ec:	1ff00693          	li	a3,511
   130f0:	f4f6fee3          	bgeu	a3,a5,1304c <_free_r+0x98>
   130f4:	0097d693          	srli	a3,a5,0x9
   130f8:	00400613          	li	a2,4
   130fc:	0ed66863          	bltu	a2,a3,131ec <_free_r+0x238>
   13100:	0067d693          	srli	a3,a5,0x6
   13104:	03968593          	addi	a1,a3,57
   13108:	03868613          	addi	a2,a3,56
   1310c:	00359593          	slli	a1,a1,0x3
   13110:	00b805b3          	add	a1,a6,a1
   13114:	0005a683          	lw	a3,0(a1)
   13118:	ff858593          	addi	a1,a1,-8
   1311c:	12d58463          	beq	a1,a3,13244 <_free_r+0x290>
   13120:	0046a603          	lw	a2,4(a3)
   13124:	ffc67613          	andi	a2,a2,-4
   13128:	00c7f663          	bgeu	a5,a2,13134 <_free_r+0x180>
   1312c:	0086a683          	lw	a3,8(a3)
   13130:	fed598e3          	bne	a1,a3,13120 <_free_r+0x16c>
   13134:	00c6a583          	lw	a1,12(a3)
   13138:	00b72623          	sw	a1,12(a4)
   1313c:	00d72423          	sw	a3,8(a4)
   13140:	00812403          	lw	s0,8(sp)
   13144:	00c12083          	lw	ra,12(sp)
   13148:	00e5a423          	sw	a4,8(a1)
   1314c:	00048513          	mv	a0,s1
   13150:	00412483          	lw	s1,4(sp)
   13154:	00e6a623          	sw	a4,12(a3)
   13158:	01010113          	addi	sp,sp,16
   1315c:	f19fe06f          	j	12074 <__malloc_unlock>
   13160:	14059263          	bnez	a1,132a4 <_free_r+0x2f0>
   13164:	00c62583          	lw	a1,12(a2)
   13168:	00862603          	lw	a2,8(a2)
   1316c:	00f686b3          	add	a3,a3,a5
   13170:	00812403          	lw	s0,8(sp)
   13174:	00b62623          	sw	a1,12(a2)
   13178:	00c5a423          	sw	a2,8(a1)
   1317c:	0016e793          	ori	a5,a3,1
   13180:	00c12083          	lw	ra,12(sp)
   13184:	00f72223          	sw	a5,4(a4)
   13188:	00048513          	mv	a0,s1
   1318c:	00d70733          	add	a4,a4,a3
   13190:	00412483          	lw	s1,4(sp)
   13194:	00d72023          	sw	a3,0(a4)
   13198:	01010113          	addi	sp,sp,16
   1319c:	ed9fe06f          	j	12074 <__malloc_unlock>
   131a0:	0015f593          	andi	a1,a1,1
   131a4:	00d786b3          	add	a3,a5,a3
   131a8:	02059063          	bnez	a1,131c8 <_free_r+0x214>
   131ac:	ff842583          	lw	a1,-8(s0)
   131b0:	40b70733          	sub	a4,a4,a1
   131b4:	00c72783          	lw	a5,12(a4)
   131b8:	00872603          	lw	a2,8(a4)
   131bc:	00b686b3          	add	a3,a3,a1
   131c0:	00f62623          	sw	a5,12(a2)
   131c4:	00c7a423          	sw	a2,8(a5)
   131c8:	0016e793          	ori	a5,a3,1
   131cc:	00f72223          	sw	a5,4(a4)
   131d0:	00e82423          	sw	a4,8(a6)
   131d4:	0401a783          	lw	a5,64(gp) # 17ba8 <__malloc_trim_threshold>
   131d8:	eaf6e8e3          	bltu	a3,a5,13088 <_free_r+0xd4>
   131dc:	04c1a583          	lw	a1,76(gp) # 17bb4 <__malloc_top_pad>
   131e0:	00048513          	mv	a0,s1
   131e4:	ca1ff0ef          	jal	ra,12e84 <_malloc_trim_r>
   131e8:	ea1ff06f          	j	13088 <_free_r+0xd4>
   131ec:	01400613          	li	a2,20
   131f0:	02d67463          	bgeu	a2,a3,13218 <_free_r+0x264>
   131f4:	05400613          	li	a2,84
   131f8:	06d66463          	bltu	a2,a3,13260 <_free_r+0x2ac>
   131fc:	00c7d693          	srli	a3,a5,0xc
   13200:	06f68593          	addi	a1,a3,111
   13204:	06e68613          	addi	a2,a3,110
   13208:	00359593          	slli	a1,a1,0x3
   1320c:	f05ff06f          	j	13110 <_free_r+0x15c>
   13210:	00d787b3          	add	a5,a5,a3
   13214:	ea1ff06f          	j	130b4 <_free_r+0x100>
   13218:	05c68593          	addi	a1,a3,92
   1321c:	05b68613          	addi	a2,a3,91
   13220:	00359593          	slli	a1,a1,0x3
   13224:	eedff06f          	j	13110 <_free_r+0x15c>
   13228:	00e82a23          	sw	a4,20(a6)
   1322c:	00e82823          	sw	a4,16(a6)
   13230:	01172623          	sw	a7,12(a4)
   13234:	01172423          	sw	a7,8(a4)
   13238:	00a72223          	sw	a0,4(a4)
   1323c:	00f5a023          	sw	a5,0(a1)
   13240:	e49ff06f          	j	13088 <_free_r+0xd4>
   13244:	00482503          	lw	a0,4(a6)
   13248:	40265613          	srai	a2,a2,0x2
   1324c:	00100793          	li	a5,1
   13250:	00c797b3          	sll	a5,a5,a2
   13254:	00a7e7b3          	or	a5,a5,a0
   13258:	00f82223          	sw	a5,4(a6)
   1325c:	eddff06f          	j	13138 <_free_r+0x184>
   13260:	15400613          	li	a2,340
   13264:	00d66c63          	bltu	a2,a3,1327c <_free_r+0x2c8>
   13268:	00f7d693          	srli	a3,a5,0xf
   1326c:	07868593          	addi	a1,a3,120
   13270:	07768613          	addi	a2,a3,119
   13274:	00359593          	slli	a1,a1,0x3
   13278:	e99ff06f          	j	13110 <_free_r+0x15c>
   1327c:	55400613          	li	a2,1364
   13280:	00d66c63          	bltu	a2,a3,13298 <_free_r+0x2e4>
   13284:	0127d693          	srli	a3,a5,0x12
   13288:	07d68593          	addi	a1,a3,125
   1328c:	07c68613          	addi	a2,a3,124
   13290:	00359593          	slli	a1,a1,0x3
   13294:	e7dff06f          	j	13110 <_free_r+0x15c>
   13298:	3f800593          	li	a1,1016
   1329c:	07e00613          	li	a2,126
   132a0:	e71ff06f          	j	13110 <_free_r+0x15c>
   132a4:	0017e693          	ori	a3,a5,1
   132a8:	00d72223          	sw	a3,4(a4)
   132ac:	00f62023          	sw	a5,0(a2)
   132b0:	dd9ff06f          	j	13088 <_free_r+0xd4>

000132b4 <_lseek_r>:
   132b4:	ff010113          	addi	sp,sp,-16
   132b8:	00058713          	mv	a4,a1
   132bc:	00812423          	sw	s0,8(sp)
   132c0:	00060593          	mv	a1,a2
   132c4:	00050413          	mv	s0,a0
   132c8:	00068613          	mv	a2,a3
   132cc:	00070513          	mv	a0,a4
   132d0:	0401a823          	sw	zero,80(gp) # 17bb8 <errno>
   132d4:	00112623          	sw	ra,12(sp)
   132d8:	66c000ef          	jal	ra,13944 <_lseek>
   132dc:	fff00793          	li	a5,-1
   132e0:	00f50a63          	beq	a0,a5,132f4 <_lseek_r+0x40>
   132e4:	00c12083          	lw	ra,12(sp)
   132e8:	00812403          	lw	s0,8(sp)
   132ec:	01010113          	addi	sp,sp,16
   132f0:	00008067          	ret
   132f4:	0501a783          	lw	a5,80(gp) # 17bb8 <errno>
   132f8:	fe0786e3          	beqz	a5,132e4 <_lseek_r+0x30>
   132fc:	00c12083          	lw	ra,12(sp)
   13300:	00f42023          	sw	a5,0(s0)
   13304:	00812403          	lw	s0,8(sp)
   13308:	01010113          	addi	sp,sp,16
   1330c:	00008067          	ret

00013310 <__smakebuf_r>:
   13310:	00c5d783          	lhu	a5,12(a1)
   13314:	f8010113          	addi	sp,sp,-128
   13318:	06812c23          	sw	s0,120(sp)
   1331c:	06112e23          	sw	ra,124(sp)
   13320:	06912a23          	sw	s1,116(sp)
   13324:	07212823          	sw	s2,112(sp)
   13328:	07312623          	sw	s3,108(sp)
   1332c:	07412423          	sw	s4,104(sp)
   13330:	0027f713          	andi	a4,a5,2
   13334:	00058413          	mv	s0,a1
   13338:	02070c63          	beqz	a4,13370 <__smakebuf_r+0x60>
   1333c:	04358793          	addi	a5,a1,67
   13340:	00f5a023          	sw	a5,0(a1)
   13344:	00f5a823          	sw	a5,16(a1)
   13348:	00100793          	li	a5,1
   1334c:	00f5aa23          	sw	a5,20(a1)
   13350:	07c12083          	lw	ra,124(sp)
   13354:	07812403          	lw	s0,120(sp)
   13358:	07412483          	lw	s1,116(sp)
   1335c:	07012903          	lw	s2,112(sp)
   13360:	06c12983          	lw	s3,108(sp)
   13364:	06812a03          	lw	s4,104(sp)
   13368:	08010113          	addi	sp,sp,128
   1336c:	00008067          	ret
   13370:	00e59583          	lh	a1,14(a1)
   13374:	00050493          	mv	s1,a0
   13378:	0805cc63          	bltz	a1,13410 <__smakebuf_r+0x100>
   1337c:	00810613          	addi	a2,sp,8
   13380:	408000ef          	jal	ra,13788 <_fstat_r>
   13384:	08054463          	bltz	a0,1340c <__smakebuf_r+0xfc>
   13388:	00c12783          	lw	a5,12(sp)
   1338c:	0000f937          	lui	s2,0xf
   13390:	00001a37          	lui	s4,0x1
   13394:	00f97933          	and	s2,s2,a5
   13398:	ffffe7b7          	lui	a5,0xffffe
   1339c:	00f90933          	add	s2,s2,a5
   133a0:	00193913          	seqz	s2,s2
   133a4:	40000993          	li	s3,1024
   133a8:	800a0a13          	addi	s4,s4,-2048 # 800 <main-0xf874>
   133ac:	00098593          	mv	a1,s3
   133b0:	00048513          	mv	a0,s1
   133b4:	a08fe0ef          	jal	ra,115bc <_malloc_r>
   133b8:	00c41783          	lh	a5,12(s0)
   133bc:	06050e63          	beqz	a0,13438 <__smakebuf_r+0x128>
   133c0:	ffffe717          	auipc	a4,0xffffe
   133c4:	81070713          	addi	a4,a4,-2032 # 10bd0 <_cleanup_r>
   133c8:	02e4ae23          	sw	a4,60(s1)
   133cc:	0807e793          	ori	a5,a5,128
   133d0:	00f41623          	sh	a5,12(s0)
   133d4:	00a42023          	sw	a0,0(s0)
   133d8:	00a42823          	sw	a0,16(s0)
   133dc:	01342a23          	sw	s3,20(s0)
   133e0:	08091863          	bnez	s2,13470 <__smakebuf_r+0x160>
   133e4:	0147e7b3          	or	a5,a5,s4
   133e8:	07c12083          	lw	ra,124(sp)
   133ec:	00f41623          	sh	a5,12(s0)
   133f0:	07812403          	lw	s0,120(sp)
   133f4:	07412483          	lw	s1,116(sp)
   133f8:	07012903          	lw	s2,112(sp)
   133fc:	06c12983          	lw	s3,108(sp)
   13400:	06812a03          	lw	s4,104(sp)
   13404:	08010113          	addi	sp,sp,128
   13408:	00008067          	ret
   1340c:	00c45783          	lhu	a5,12(s0)
   13410:	0807f793          	andi	a5,a5,128
   13414:	00000913          	li	s2,0
   13418:	04078663          	beqz	a5,13464 <__smakebuf_r+0x154>
   1341c:	04000993          	li	s3,64
   13420:	00098593          	mv	a1,s3
   13424:	00048513          	mv	a0,s1
   13428:	994fe0ef          	jal	ra,115bc <_malloc_r>
   1342c:	00c41783          	lh	a5,12(s0)
   13430:	00000a13          	li	s4,0
   13434:	f80516e3          	bnez	a0,133c0 <__smakebuf_r+0xb0>
   13438:	2007f713          	andi	a4,a5,512
   1343c:	f0071ae3          	bnez	a4,13350 <__smakebuf_r+0x40>
   13440:	ffc7f793          	andi	a5,a5,-4
   13444:	0027e793          	ori	a5,a5,2
   13448:	04340713          	addi	a4,s0,67
   1344c:	00f41623          	sh	a5,12(s0)
   13450:	00100793          	li	a5,1
   13454:	00e42023          	sw	a4,0(s0)
   13458:	00e42823          	sw	a4,16(s0)
   1345c:	00f42a23          	sw	a5,20(s0)
   13460:	ef1ff06f          	j	13350 <__smakebuf_r+0x40>
   13464:	40000993          	li	s3,1024
   13468:	00000a13          	li	s4,0
   1346c:	f41ff06f          	j	133ac <__smakebuf_r+0x9c>
   13470:	00e41583          	lh	a1,14(s0)
   13474:	00048513          	mv	a0,s1
   13478:	368000ef          	jal	ra,137e0 <_isatty_r>
   1347c:	00051663          	bnez	a0,13488 <__smakebuf_r+0x178>
   13480:	00c41783          	lh	a5,12(s0)
   13484:	f61ff06f          	j	133e4 <__smakebuf_r+0xd4>
   13488:	00c45783          	lhu	a5,12(s0)
   1348c:	ffc7f793          	andi	a5,a5,-4
   13490:	0017e793          	ori	a5,a5,1
   13494:	01079793          	slli	a5,a5,0x10
   13498:	4107d793          	srai	a5,a5,0x10
   1349c:	f49ff06f          	j	133e4 <__smakebuf_r+0xd4>

000134a0 <__swhatbuf_r>:
   134a0:	f9010113          	addi	sp,sp,-112
   134a4:	06812423          	sw	s0,104(sp)
   134a8:	00058413          	mv	s0,a1
   134ac:	00e59583          	lh	a1,14(a1)
   134b0:	06912223          	sw	s1,100(sp)
   134b4:	07212023          	sw	s2,96(sp)
   134b8:	06112623          	sw	ra,108(sp)
   134bc:	00060493          	mv	s1,a2
   134c0:	00068913          	mv	s2,a3
   134c4:	0405ca63          	bltz	a1,13518 <__swhatbuf_r+0x78>
   134c8:	00810613          	addi	a2,sp,8
   134cc:	2bc000ef          	jal	ra,13788 <_fstat_r>
   134d0:	04054463          	bltz	a0,13518 <__swhatbuf_r+0x78>
   134d4:	00c12703          	lw	a4,12(sp)
   134d8:	0000f7b7          	lui	a5,0xf
   134dc:	06c12083          	lw	ra,108(sp)
   134e0:	00e7f7b3          	and	a5,a5,a4
   134e4:	ffffe737          	lui	a4,0xffffe
   134e8:	00e787b3          	add	a5,a5,a4
   134ec:	06812403          	lw	s0,104(sp)
   134f0:	0017b793          	seqz	a5,a5
   134f4:	00f92023          	sw	a5,0(s2) # f000 <main-0x1074>
   134f8:	40000713          	li	a4,1024
   134fc:	00e4a023          	sw	a4,0(s1)
   13500:	00001537          	lui	a0,0x1
   13504:	06412483          	lw	s1,100(sp)
   13508:	06012903          	lw	s2,96(sp)
   1350c:	80050513          	addi	a0,a0,-2048 # 800 <main-0xf874>
   13510:	07010113          	addi	sp,sp,112
   13514:	00008067          	ret
   13518:	00c45783          	lhu	a5,12(s0)
   1351c:	0807f793          	andi	a5,a5,128
   13520:	02078863          	beqz	a5,13550 <__swhatbuf_r+0xb0>
   13524:	06c12083          	lw	ra,108(sp)
   13528:	06812403          	lw	s0,104(sp)
   1352c:	00000793          	li	a5,0
   13530:	00f92023          	sw	a5,0(s2)
   13534:	04000713          	li	a4,64
   13538:	00e4a023          	sw	a4,0(s1)
   1353c:	06012903          	lw	s2,96(sp)
   13540:	06412483          	lw	s1,100(sp)
   13544:	00000513          	li	a0,0
   13548:	07010113          	addi	sp,sp,112
   1354c:	00008067          	ret
   13550:	06c12083          	lw	ra,108(sp)
   13554:	06812403          	lw	s0,104(sp)
   13558:	00000793          	li	a5,0
   1355c:	00f92023          	sw	a5,0(s2)
   13560:	40000713          	li	a4,1024
   13564:	00e4a023          	sw	a4,0(s1)
   13568:	06012903          	lw	s2,96(sp)
   1356c:	06412483          	lw	s1,100(sp)
   13570:	00000513          	li	a0,0
   13574:	07010113          	addi	sp,sp,112
   13578:	00008067          	ret

0001357c <_read_r>:
   1357c:	ff010113          	addi	sp,sp,-16
   13580:	00058713          	mv	a4,a1
   13584:	00812423          	sw	s0,8(sp)
   13588:	00060593          	mv	a1,a2
   1358c:	00050413          	mv	s0,a0
   13590:	00068613          	mv	a2,a3
   13594:	00070513          	mv	a0,a4
   13598:	0401a823          	sw	zero,80(gp) # 17bb8 <errno>
   1359c:	00112623          	sw	ra,12(sp)
   135a0:	3e8000ef          	jal	ra,13988 <_read>
   135a4:	fff00793          	li	a5,-1
   135a8:	00f50a63          	beq	a0,a5,135bc <_read_r+0x40>
   135ac:	00c12083          	lw	ra,12(sp)
   135b0:	00812403          	lw	s0,8(sp)
   135b4:	01010113          	addi	sp,sp,16
   135b8:	00008067          	ret
   135bc:	0501a783          	lw	a5,80(gp) # 17bb8 <errno>
   135c0:	fe0786e3          	beqz	a5,135ac <_read_r+0x30>
   135c4:	00c12083          	lw	ra,12(sp)
   135c8:	00f42023          	sw	a5,0(s0)
   135cc:	00812403          	lw	s0,8(sp)
   135d0:	01010113          	addi	sp,sp,16
   135d4:	00008067          	ret

000135d8 <cleanup_glue>:
   135d8:	fe010113          	addi	sp,sp,-32
   135dc:	01212823          	sw	s2,16(sp)
   135e0:	0005a903          	lw	s2,0(a1)
   135e4:	00812c23          	sw	s0,24(sp)
   135e8:	00912a23          	sw	s1,20(sp)
   135ec:	00112e23          	sw	ra,28(sp)
   135f0:	01312623          	sw	s3,12(sp)
   135f4:	01412423          	sw	s4,8(sp)
   135f8:	00058413          	mv	s0,a1
   135fc:	00050493          	mv	s1,a0
   13600:	04090263          	beqz	s2,13644 <cleanup_glue+0x6c>
   13604:	00092983          	lw	s3,0(s2)
   13608:	02098863          	beqz	s3,13638 <cleanup_glue+0x60>
   1360c:	0009aa03          	lw	s4,0(s3)
   13610:	000a0e63          	beqz	s4,1362c <cleanup_glue+0x54>
   13614:	000a2583          	lw	a1,0(s4)
   13618:	00058463          	beqz	a1,13620 <cleanup_glue+0x48>
   1361c:	fbdff0ef          	jal	ra,135d8 <cleanup_glue>
   13620:	000a0593          	mv	a1,s4
   13624:	00048513          	mv	a0,s1
   13628:	98dff0ef          	jal	ra,12fb4 <_free_r>
   1362c:	00098593          	mv	a1,s3
   13630:	00048513          	mv	a0,s1
   13634:	981ff0ef          	jal	ra,12fb4 <_free_r>
   13638:	00090593          	mv	a1,s2
   1363c:	00048513          	mv	a0,s1
   13640:	975ff0ef          	jal	ra,12fb4 <_free_r>
   13644:	00040593          	mv	a1,s0
   13648:	01812403          	lw	s0,24(sp)
   1364c:	01c12083          	lw	ra,28(sp)
   13650:	01012903          	lw	s2,16(sp)
   13654:	00c12983          	lw	s3,12(sp)
   13658:	00812a03          	lw	s4,8(sp)
   1365c:	00048513          	mv	a0,s1
   13660:	01412483          	lw	s1,20(sp)
   13664:	02010113          	addi	sp,sp,32
   13668:	94dff06f          	j	12fb4 <_free_r>

0001366c <_reclaim_reent>:
   1366c:	0381a783          	lw	a5,56(gp) # 17ba0 <_impure_ptr>
   13670:	10a78a63          	beq	a5,a0,13784 <_reclaim_reent+0x118>
   13674:	04c52583          	lw	a1,76(a0)
   13678:	fe010113          	addi	sp,sp,-32
   1367c:	00912a23          	sw	s1,20(sp)
   13680:	00112e23          	sw	ra,28(sp)
   13684:	00812c23          	sw	s0,24(sp)
   13688:	01212823          	sw	s2,16(sp)
   1368c:	01312623          	sw	s3,12(sp)
   13690:	00050493          	mv	s1,a0
   13694:	04058063          	beqz	a1,136d4 <_reclaim_reent+0x68>
   13698:	00000913          	li	s2,0
   1369c:	08000993          	li	s3,128
   136a0:	012587b3          	add	a5,a1,s2
   136a4:	0007a403          	lw	s0,0(a5) # f000 <main-0x1074>
   136a8:	00040e63          	beqz	s0,136c4 <_reclaim_reent+0x58>
   136ac:	00040593          	mv	a1,s0
   136b0:	00042403          	lw	s0,0(s0)
   136b4:	00048513          	mv	a0,s1
   136b8:	8fdff0ef          	jal	ra,12fb4 <_free_r>
   136bc:	fe0418e3          	bnez	s0,136ac <_reclaim_reent+0x40>
   136c0:	04c4a583          	lw	a1,76(s1)
   136c4:	00490913          	addi	s2,s2,4
   136c8:	fd391ce3          	bne	s2,s3,136a0 <_reclaim_reent+0x34>
   136cc:	00048513          	mv	a0,s1
   136d0:	8e5ff0ef          	jal	ra,12fb4 <_free_r>
   136d4:	0404a583          	lw	a1,64(s1)
   136d8:	00058663          	beqz	a1,136e4 <_reclaim_reent+0x78>
   136dc:	00048513          	mv	a0,s1
   136e0:	8d5ff0ef          	jal	ra,12fb4 <_free_r>
   136e4:	1484a403          	lw	s0,328(s1)
   136e8:	02040063          	beqz	s0,13708 <_reclaim_reent+0x9c>
   136ec:	14c48913          	addi	s2,s1,332
   136f0:	01240c63          	beq	s0,s2,13708 <_reclaim_reent+0x9c>
   136f4:	00040593          	mv	a1,s0
   136f8:	00042403          	lw	s0,0(s0)
   136fc:	00048513          	mv	a0,s1
   13700:	8b5ff0ef          	jal	ra,12fb4 <_free_r>
   13704:	fe8918e3          	bne	s2,s0,136f4 <_reclaim_reent+0x88>
   13708:	0544a583          	lw	a1,84(s1)
   1370c:	00058663          	beqz	a1,13718 <_reclaim_reent+0xac>
   13710:	00048513          	mv	a0,s1
   13714:	8a1ff0ef          	jal	ra,12fb4 <_free_r>
   13718:	0384a783          	lw	a5,56(s1)
   1371c:	04078663          	beqz	a5,13768 <_reclaim_reent+0xfc>
   13720:	03c4a783          	lw	a5,60(s1)
   13724:	00048513          	mv	a0,s1
   13728:	000780e7          	jalr	a5
   1372c:	2e04a403          	lw	s0,736(s1)
   13730:	02040c63          	beqz	s0,13768 <_reclaim_reent+0xfc>
   13734:	00042583          	lw	a1,0(s0)
   13738:	00058663          	beqz	a1,13744 <_reclaim_reent+0xd8>
   1373c:	00048513          	mv	a0,s1
   13740:	e99ff0ef          	jal	ra,135d8 <cleanup_glue>
   13744:	00040593          	mv	a1,s0
   13748:	01812403          	lw	s0,24(sp)
   1374c:	01c12083          	lw	ra,28(sp)
   13750:	01012903          	lw	s2,16(sp)
   13754:	00c12983          	lw	s3,12(sp)
   13758:	00048513          	mv	a0,s1
   1375c:	01412483          	lw	s1,20(sp)
   13760:	02010113          	addi	sp,sp,32
   13764:	851ff06f          	j	12fb4 <_free_r>
   13768:	01c12083          	lw	ra,28(sp)
   1376c:	01812403          	lw	s0,24(sp)
   13770:	01412483          	lw	s1,20(sp)
   13774:	01012903          	lw	s2,16(sp)
   13778:	00c12983          	lw	s3,12(sp)
   1377c:	02010113          	addi	sp,sp,32
   13780:	00008067          	ret
   13784:	00008067          	ret

00013788 <_fstat_r>:
   13788:	ff010113          	addi	sp,sp,-16
   1378c:	00058713          	mv	a4,a1
   13790:	00812423          	sw	s0,8(sp)
   13794:	00060593          	mv	a1,a2
   13798:	00050413          	mv	s0,a0
   1379c:	00070513          	mv	a0,a4
   137a0:	0401a823          	sw	zero,80(gp) # 17bb8 <errno>
   137a4:	00112623          	sw	ra,12(sp)
   137a8:	0fc000ef          	jal	ra,138a4 <_fstat>
   137ac:	fff00793          	li	a5,-1
   137b0:	00f50a63          	beq	a0,a5,137c4 <_fstat_r+0x3c>
   137b4:	00c12083          	lw	ra,12(sp)
   137b8:	00812403          	lw	s0,8(sp)
   137bc:	01010113          	addi	sp,sp,16
   137c0:	00008067          	ret
   137c4:	0501a783          	lw	a5,80(gp) # 17bb8 <errno>
   137c8:	fe0786e3          	beqz	a5,137b4 <_fstat_r+0x2c>
   137cc:	00c12083          	lw	ra,12(sp)
   137d0:	00f42023          	sw	a5,0(s0)
   137d4:	00812403          	lw	s0,8(sp)
   137d8:	01010113          	addi	sp,sp,16
   137dc:	00008067          	ret

000137e0 <_isatty_r>:
   137e0:	ff010113          	addi	sp,sp,-16
   137e4:	00812423          	sw	s0,8(sp)
   137e8:	00050413          	mv	s0,a0
   137ec:	00058513          	mv	a0,a1
   137f0:	0401a823          	sw	zero,80(gp) # 17bb8 <errno>
   137f4:	00112623          	sw	ra,12(sp)
   137f8:	10c000ef          	jal	ra,13904 <_isatty>
   137fc:	fff00793          	li	a5,-1
   13800:	00f50a63          	beq	a0,a5,13814 <_isatty_r+0x34>
   13804:	00c12083          	lw	ra,12(sp)
   13808:	00812403          	lw	s0,8(sp)
   1380c:	01010113          	addi	sp,sp,16
   13810:	00008067          	ret
   13814:	0501a783          	lw	a5,80(gp) # 17bb8 <errno>
   13818:	fe0786e3          	beqz	a5,13804 <_isatty_r+0x24>
   1381c:	00c12083          	lw	ra,12(sp)
   13820:	00f42023          	sw	a5,0(s0)
   13824:	00812403          	lw	s0,8(sp)
   13828:	01010113          	addi	sp,sp,16
   1382c:	00008067          	ret

00013830 <_close>:
   13830:	ff010113          	addi	sp,sp,-16
   13834:	00112623          	sw	ra,12(sp)
   13838:	00812423          	sw	s0,8(sp)
   1383c:	03900893          	li	a7,57
   13840:	00000073          	ecall
   13844:	00050413          	mv	s0,a0
   13848:	00054c63          	bltz	a0,13860 <_close+0x30>
   1384c:	00c12083          	lw	ra,12(sp)
   13850:	00040513          	mv	a0,s0
   13854:	00812403          	lw	s0,8(sp)
   13858:	01010113          	addi	sp,sp,16
   1385c:	00008067          	ret
   13860:	40800433          	neg	s0,s0
   13864:	2cc000ef          	jal	ra,13b30 <__errno>
   13868:	00852023          	sw	s0,0(a0)
   1386c:	fff00413          	li	s0,-1
   13870:	fddff06f          	j	1384c <_close+0x1c>

00013874 <_exit>:
   13874:	05d00893          	li	a7,93
   13878:	00000073          	ecall
   1387c:	00054463          	bltz	a0,13884 <_exit+0x10>
   13880:	0000006f          	j	13880 <_exit+0xc>
   13884:	ff010113          	addi	sp,sp,-16
   13888:	00812423          	sw	s0,8(sp)
   1388c:	00050413          	mv	s0,a0
   13890:	00112623          	sw	ra,12(sp)
   13894:	40800433          	neg	s0,s0
   13898:	298000ef          	jal	ra,13b30 <__errno>
   1389c:	00852023          	sw	s0,0(a0)
   138a0:	0000006f          	j	138a0 <_exit+0x2c>

000138a4 <_fstat>:
   138a4:	f7010113          	addi	sp,sp,-144
   138a8:	08912223          	sw	s1,132(sp)
   138ac:	08112623          	sw	ra,140(sp)
   138b0:	00058493          	mv	s1,a1
   138b4:	08812423          	sw	s0,136(sp)
   138b8:	05000893          	li	a7,80
   138bc:	00010593          	mv	a1,sp
   138c0:	00000073          	ecall
   138c4:	00050413          	mv	s0,a0
   138c8:	02054463          	bltz	a0,138f0 <_fstat+0x4c>
   138cc:	00048513          	mv	a0,s1
   138d0:	00010593          	mv	a1,sp
   138d4:	1b8000ef          	jal	ra,13a8c <_conv_stat>
   138d8:	08c12083          	lw	ra,140(sp)
   138dc:	00040513          	mv	a0,s0
   138e0:	08812403          	lw	s0,136(sp)
   138e4:	08412483          	lw	s1,132(sp)
   138e8:	09010113          	addi	sp,sp,144
   138ec:	00008067          	ret
   138f0:	40800433          	neg	s0,s0
   138f4:	23c000ef          	jal	ra,13b30 <__errno>
   138f8:	00852023          	sw	s0,0(a0)
   138fc:	fff00413          	li	s0,-1
   13900:	fcdff06f          	j	138cc <_fstat+0x28>

00013904 <_isatty>:
   13904:	f9010113          	addi	sp,sp,-112
   13908:	00810593          	addi	a1,sp,8
   1390c:	06112623          	sw	ra,108(sp)
   13910:	f95ff0ef          	jal	ra,138a4 <_fstat>
   13914:	fff00793          	li	a5,-1
   13918:	00f50e63          	beq	a0,a5,13934 <_isatty+0x30>
   1391c:	00c12503          	lw	a0,12(sp)
   13920:	06c12083          	lw	ra,108(sp)
   13924:	00d55513          	srli	a0,a0,0xd
   13928:	00157513          	andi	a0,a0,1
   1392c:	07010113          	addi	sp,sp,112
   13930:	00008067          	ret
   13934:	06c12083          	lw	ra,108(sp)
   13938:	00000513          	li	a0,0
   1393c:	07010113          	addi	sp,sp,112
   13940:	00008067          	ret

00013944 <_lseek>:
   13944:	ff010113          	addi	sp,sp,-16
   13948:	00112623          	sw	ra,12(sp)
   1394c:	00812423          	sw	s0,8(sp)
   13950:	03e00893          	li	a7,62
   13954:	00000073          	ecall
   13958:	00050413          	mv	s0,a0
   1395c:	00054c63          	bltz	a0,13974 <_lseek+0x30>
   13960:	00c12083          	lw	ra,12(sp)
   13964:	00040513          	mv	a0,s0
   13968:	00812403          	lw	s0,8(sp)
   1396c:	01010113          	addi	sp,sp,16
   13970:	00008067          	ret
   13974:	40800433          	neg	s0,s0
   13978:	1b8000ef          	jal	ra,13b30 <__errno>
   1397c:	00852023          	sw	s0,0(a0)
   13980:	fff00413          	li	s0,-1
   13984:	fddff06f          	j	13960 <_lseek+0x1c>

00013988 <_read>:
   13988:	ff010113          	addi	sp,sp,-16
   1398c:	00112623          	sw	ra,12(sp)
   13990:	00812423          	sw	s0,8(sp)
   13994:	03f00893          	li	a7,63
   13998:	00000073          	ecall
   1399c:	00050413          	mv	s0,a0
   139a0:	00054c63          	bltz	a0,139b8 <_read+0x30>
   139a4:	00c12083          	lw	ra,12(sp)
   139a8:	00040513          	mv	a0,s0
   139ac:	00812403          	lw	s0,8(sp)
   139b0:	01010113          	addi	sp,sp,16
   139b4:	00008067          	ret
   139b8:	40800433          	neg	s0,s0
   139bc:	174000ef          	jal	ra,13b30 <__errno>
   139c0:	00852023          	sw	s0,0(a0)
   139c4:	fff00413          	li	s0,-1
   139c8:	fddff06f          	j	139a4 <_read+0x1c>

000139cc <_sbrk>:
   139cc:	05418693          	addi	a3,gp,84 # 17bbc <heap_end.0>
   139d0:	0006a703          	lw	a4,0(a3)
   139d4:	ff010113          	addi	sp,sp,-16
   139d8:	00112623          	sw	ra,12(sp)
   139dc:	00050793          	mv	a5,a0
   139e0:	02071063          	bnez	a4,13a00 <_sbrk+0x34>
   139e4:	0d600893          	li	a7,214
   139e8:	00000513          	li	a0,0
   139ec:	00000073          	ecall
   139f0:	fff00613          	li	a2,-1
   139f4:	00050713          	mv	a4,a0
   139f8:	02c50a63          	beq	a0,a2,13a2c <_sbrk+0x60>
   139fc:	00a6a023          	sw	a0,0(a3)
   13a00:	0d600893          	li	a7,214
   13a04:	00e78533          	add	a0,a5,a4
   13a08:	00000073          	ecall
   13a0c:	0006a703          	lw	a4,0(a3)
   13a10:	00e787b3          	add	a5,a5,a4
   13a14:	00f51c63          	bne	a0,a5,13a2c <_sbrk+0x60>
   13a18:	00c12083          	lw	ra,12(sp)
   13a1c:	00a6a023          	sw	a0,0(a3)
   13a20:	00070513          	mv	a0,a4
   13a24:	01010113          	addi	sp,sp,16
   13a28:	00008067          	ret
   13a2c:	104000ef          	jal	ra,13b30 <__errno>
   13a30:	00c12083          	lw	ra,12(sp)
   13a34:	00c00793          	li	a5,12
   13a38:	00f52023          	sw	a5,0(a0)
   13a3c:	fff00513          	li	a0,-1
   13a40:	01010113          	addi	sp,sp,16
   13a44:	00008067          	ret

00013a48 <_write>:
   13a48:	ff010113          	addi	sp,sp,-16
   13a4c:	00112623          	sw	ra,12(sp)
   13a50:	00812423          	sw	s0,8(sp)
   13a54:	04000893          	li	a7,64
   13a58:	00000073          	ecall
   13a5c:	00050413          	mv	s0,a0
   13a60:	00054c63          	bltz	a0,13a78 <_write+0x30>
   13a64:	00c12083          	lw	ra,12(sp)
   13a68:	00040513          	mv	a0,s0
   13a6c:	00812403          	lw	s0,8(sp)
   13a70:	01010113          	addi	sp,sp,16
   13a74:	00008067          	ret
   13a78:	40800433          	neg	s0,s0
   13a7c:	0b4000ef          	jal	ra,13b30 <__errno>
   13a80:	00852023          	sw	s0,0(a0)
   13a84:	fff00413          	li	s0,-1
   13a88:	fddff06f          	j	13a64 <_write+0x1c>

00013a8c <_conv_stat>:
   13a8c:	ff010113          	addi	sp,sp,-16
   13a90:	0145a383          	lw	t2,20(a1)
   13a94:	0185a283          	lw	t0,24(a1)
   13a98:	01c5af83          	lw	t6,28(a1)
   13a9c:	0205af03          	lw	t5,32(a1)
   13aa0:	0305ae83          	lw	t4,48(a1)
   13aa4:	0405ae03          	lw	t3,64(a1)
   13aa8:	0385a303          	lw	t1,56(a1)
   13aac:	0485a803          	lw	a6,72(a1)
   13ab0:	04c5a883          	lw	a7,76(a1)
   13ab4:	0585a603          	lw	a2,88(a1)
   13ab8:	00812623          	sw	s0,12(sp)
   13abc:	00912423          	sw	s1,8(sp)
   13ac0:	0105a403          	lw	s0,16(a1)
   13ac4:	0085a483          	lw	s1,8(a1)
   13ac8:	01212223          	sw	s2,4(sp)
   13acc:	0005a903          	lw	s2,0(a1)
   13ad0:	05c5a683          	lw	a3,92(a1)
   13ad4:	0685a703          	lw	a4,104(a1)
   13ad8:	06c5a783          	lw	a5,108(a1)
   13adc:	01251023          	sh	s2,0(a0)
   13ae0:	00951123          	sh	s1,2(a0)
   13ae4:	00852223          	sw	s0,4(a0)
   13ae8:	00751423          	sh	t2,8(a0)
   13aec:	00551523          	sh	t0,10(a0)
   13af0:	01f51623          	sh	t6,12(a0)
   13af4:	01e51723          	sh	t5,14(a0)
   13af8:	01d52823          	sw	t4,16(a0)
   13afc:	05c52623          	sw	t3,76(a0)
   13b00:	04652423          	sw	t1,72(a0)
   13b04:	01052c23          	sw	a6,24(a0)
   13b08:	01152e23          	sw	a7,28(a0)
   13b0c:	02c52423          	sw	a2,40(a0)
   13b10:	02d52623          	sw	a3,44(a0)
   13b14:	00c12403          	lw	s0,12(sp)
   13b18:	02e52c23          	sw	a4,56(a0)
   13b1c:	02f52e23          	sw	a5,60(a0)
   13b20:	00812483          	lw	s1,8(sp)
   13b24:	00412903          	lw	s2,4(sp)
   13b28:	01010113          	addi	sp,sp,16
   13b2c:	00008067          	ret

00013b30 <__errno>:
   13b30:	0381a503          	lw	a0,56(gp) # 17ba0 <_impure_ptr>
   13b34:	00008067          	ret
